(dp0
S'y'
p1
(lp2
S'24'
p3
aS'21.6'
p4
aS'34.7'
p5
aS'33.4'
p6
aS'36.2'
p7
aS'28.7'
p8
aS'22.9'
p9
aS'27.1'
p10
aS'16.5'
p11
aS'18.9'
p12
aS'15'
p13
aS'18.9'
p14
aS'21.7'
p15
aS'20.4'
p16
aS'18.2'
p17
aS'19.9'
p18
aS'23.1'
p19
aS'17.5'
p20
aS'20.2'
p21
aS'18.2'
p22
aS'13.6'
p23
aS'19.6'
p24
aS'15.2'
p25
aS'14.5'
p26
aS'15.6'
p27
aS'13.9'
p28
aS'16.6'
p29
aS'14.8'
p30
aS'18.4'
p31
aS'21'
p32
aS'12.7'
p33
aS'14.5'
p34
aS'13.2'
p35
aS'13.1'
p36
aS'13.5'
p37
aS'18.9'
p38
aS'20'
p39
aS'21'
p40
aS'24.7'
p41
aS'30.8'
p42
aS'34.9'
p43
aS'26.6'
p44
aS'25.3'
p45
aS'24.7'
p46
aS'21.2'
p47
aS'19.3'
p48
aS'20'
p49
aS'16.6'
p50
aS'14.4'
p51
aS'19.4'
p52
aS'19.7'
p53
aS'20.5'
p54
aS'25'
p55
aS'23.4'
p56
aS'18.9'
p57
aS'35.4'
p58
aS'24.7'
p59
aS'31.6'
p60
aS'23.3'
p61
aS'19.6'
p62
aS'18.7'
p63
aS'16'
p64
aS'22.2'
p65
aS'25'
p66
aS'33'
p67
aS'23.5'
p68
aS'19.4'
p69
aS'22'
p70
aS'17.4'
p71
aS'20.9'
p72
aS'24.2'
p73
aS'21.7'
p74
aS'22.8'
p75
aS'23.4'
p76
aS'24.1'
p77
aS'21.4'
p78
aS'20'
p79
aS'20.8'
p80
aS'21.2'
p81
aS'20.3'
p82
aS'28'
p83
aS'23.9'
p84
aS'24.8'
p85
aS'22.9'
p86
aS'23.9'
p87
aS'26.6'
p88
aS'22.5'
p89
aS'22.2'
p90
aS'23.6'
p91
aS'28.7'
p92
aS'22.6'
p93
aS'22'
p94
aS'22.9'
p95
aS'25'
p96
aS'20.6'
p97
aS'28.4'
p98
aS'21.4'
p99
aS'38.7'
p100
aS'43.8'
p101
aS'33.2'
p102
aS'27.5'
p103
aS'26.5'
p104
aS'18.6'
p105
aS'19.3'
p106
aS'20.1'
p107
aS'19.5'
p108
aS'19.5'
p109
aS'20.4'
p110
aS'19.8'
p111
aS'19.4'
p112
aS'21.7'
p113
aS'22.8'
p114
aS'18.8'
p115
aS'18.7'
p116
aS'18.5'
p117
aS'18.3'
p118
aS'21.2'
p119
aS'19.2'
p120
aS'20.4'
p121
aS'19.3'
p122
aS'22'
p123
aS'20.3'
p124
aS'20.5'
p125
aS'17.3'
p126
aS'18.8'
p127
aS'21.4'
p128
aS'15.7'
p129
aS'16.2'
p130
aS'18'
p131
aS'14.3'
p132
aS'19.2'
p133
aS'19.6'
p134
aS'23'
p135
aS'18.4'
p136
aS'15.6'
p137
aS'18.1'
p138
aS'17.4'
p139
aS'17.1'
p140
aS'13.3'
p141
aS'17.8'
p142
aS'14'
p143
aS'14.4'
p144
aS'13.4'
p145
aS'15.6'
p146
aS'11.8'
p147
aS'13.8'
p148
aS'15.6'
p149
aS'14.6'
p150
aS'17.8'
p151
aS'15.4'
p152
aS'21.5'
p153
aS'19.6'
p154
aS'15.3'
p155
aS'19.4'
p156
aS'17'
p157
aS'15.6'
p158
aS'13.1'
p159
aS'41.3'
p160
aS'24.3'
p161
aS'23.3'
p162
aS'27'
p163
aS'50'
p164
aS'50'
p165
aS'50'
p166
aS'22.7'
p167
aS'25'
p168
aS'50'
p169
aS'23.8'
p170
aS'23.8'
p171
aS'22.3'
p172
aS'17.4'
p173
aS'19.1'
p174
aS'23.1'
p175
aS'23.6'
p176
aS'22.6'
p177
aS'29.4'
p178
aS'23.2'
p179
aS'24.6'
p180
aS'29.9'
p181
aS'37.2'
p182
aS'39.8'
p183
aS'36.2'
p184
aS'37.9'
p185
aS'32.5'
p186
aS'26.4'
p187
aS'29.6'
p188
aS'50'
p189
aS'32'
p190
aS'29.8'
p191
aS'34.9'
p192
aS'37'
p193
aS'30.5'
p194
aS'36.4'
p195
aS'31.1'
p196
aS'29.1'
p197
aS'50'
p198
aS'33.3'
p199
aS'30.3'
p200
aS'34.6'
p201
aS'34.9'
p202
aS'32.9'
p203
aS'24.1'
p204
aS'42.3'
p205
aS'48.5'
p206
aS'50'
p207
aS'22.6'
p208
aS'24.4'
p209
aS'22.5'
p210
aS'24.4'
p211
aS'20'
p212
aS'21.7'
p213
aS'19.3'
p214
aS'22.4'
p215
aS'28.1'
p216
aS'23.7'
p217
aS'25'
p218
aS'23.3'
p219
aS'28.7'
p220
aS'21.5'
p221
aS'23'
p222
aS'26.7'
p223
aS'21.7'
p224
aS'27.5'
p225
aS'30.1'
p226
aS'44.8'
p227
aS'50'
p228
aS'37.6'
p229
aS'31.6'
p230
aS'46.7'
p231
aS'31.5'
p232
aS'24.3'
p233
aS'31.7'
p234
aS'41.7'
p235
aS'48.3'
p236
aS'29'
p237
aS'24'
p238
aS'25.1'
p239
aS'31.5'
p240
aS'23.7'
p241
aS'23.3'
p242
aS'22'
p243
aS'20.1'
p244
aS'22.2'
p245
aS'23.7'
p246
aS'17.6'
p247
aS'18.5'
p248
aS'24.3'
p249
aS'20.5'
p250
aS'24.5'
p251
aS'26.2'
p252
aS'24.4'
p253
aS'24.8'
p254
aS'29.6'
p255
aS'42.8'
p256
aS'21.9'
p257
aS'20.9'
p258
aS'44'
p259
aS'50'
p260
aS'36'
p261
aS'30.1'
p262
aS'33.8'
p263
aS'43.1'
p264
aS'48.8'
p265
aS'31'
p266
aS'36.5'
p267
aS'22.8'
p268
aS'30.7'
p269
aS'50'
p270
aS'43.5'
p271
aS'20.7'
p272
aS'21.1'
p273
aS'25.2'
p274
aS'24.4'
p275
aS'35.2'
p276
aS'32.4'
p277
aS'32'
p278
aS'33.2'
p279
aS'33.1'
p280
aS'29.1'
p281
aS'35.1'
p282
aS'45.4'
p283
aS'35.4'
p284
aS'46'
p285
aS'50'
p286
aS'32.2'
p287
aS'22'
p288
aS'20.1'
p289
aS'23.2'
p290
aS'22.3'
p291
aS'24.8'
p292
aS'28.5'
p293
aS'37.3'
p294
aS'27.9'
p295
aS'23.9'
p296
aS'21.7'
p297
aS'28.6'
p298
aS'27.1'
p299
aS'20.3'
p300
aS'22.5'
p301
aS'29'
p302
aS'24.8'
p303
aS'22'
p304
aS'26.4'
p305
aS'33.1'
p306
aS'36.1'
p307
aS'28.4'
p308
aS'33.4'
p309
aS'28.2'
p310
aS'22.8'
p311
aS'20.3'
p312
aS'16.1'
p313
aS'22.1'
p314
aS'19.4'
p315
aS'21.6'
p316
aS'23.8'
p317
aS'16.2'
p318
aS'17.8'
p319
aS'19.8'
p320
aS'23.1'
p321
aS'21'
p322
aS'23.8'
p323
aS'23.1'
p324
aS'20.4'
p325
aS'18.5'
p326
aS'25'
p327
aS'24.6'
p328
aS'23'
p329
aS'22.2'
p330
aS'19.3'
p331
aS'22.6'
p332
aS'19.8'
p333
aS'17.1'
p334
aS'19.4'
p335
aS'22.2'
p336
aS'20.7'
p337
aS'21.1'
p338
aS'19.5'
p339
aS'18.5'
p340
aS'20.6'
p341
aS'19'
p342
aS'18.7'
p343
aS'32.7'
p344
aS'16.5'
p345
aS'23.9'
p346
aS'31.2'
p347
aS'17.5'
p348
aS'17.2'
p349
aS'23.1'
p350
aS'24.5'
p351
aS'26.6'
p352
aS'22.9'
p353
aS'24.1'
p354
aS'18.6'
p355
aS'30.1'
p356
aS'18.2'
p357
aS'20.6'
p358
aS'17.8'
p359
aS'21.7'
p360
aS'22.7'
p361
aS'22.6'
p362
aS'25'
p363
aS'19.9'
p364
aS'20.8'
p365
aS'16.8'
p366
aS'21.9'
p367
aS'27.5'
p368
aS'21.9'
p369
aS'23.1'
p370
aS'50'
p371
aS'50'
p372
aS'50'
p373
aS'50'
p374
aS'50'
p375
aS'13.8'
p376
aS'13.8'
p377
aS'15'
p378
aS'13.9'
p379
aS'13.3'
p380
aS'13.1'
p381
aS'10.2'
p382
aS'10.4'
p383
aS'10.9'
p384
aS'11.3'
p385
aS'12.3'
p386
aS'8.8'
p387
aS'7.2'
p388
aS'10.5'
p389
aS'7.4'
p390
aS'10.2'
p391
aS'11.5'
p392
aS'15.1'
p393
aS'23.2'
p394
aS'9.7'
p395
aS'13.8'
p396
aS'12.7'
p397
aS'13.1'
p398
aS'12.5'
p399
aS'8.5'
p400
aS'5'
p401
aS'6.3'
p402
aS'5.6'
p403
aS'7.2'
p404
aS'12.1'
p405
aS'8.3'
p406
aS'8.5'
p407
ag401
aS'11.9'
p408
aS'27.9'
p409
aS'17.2'
p410
aS'27.5'
p411
aS'15'
p412
aS'17.2'
p413
aS'17.9'
p414
aS'16.3'
p415
aS'7'
p416
aS'7.2'
p417
aS'7.5'
p418
aS'10.4'
p419
aS'8.8'
p420
aS'8.4'
p421
aS'16.7'
p422
aS'14.2'
p423
aS'20.8'
p424
aS'13.4'
p425
aS'11.7'
p426
aS'8.3'
p427
aS'10.2'
p428
aS'10.9'
p429
aS'11'
p430
aS'9.5'
p431
aS'14.5'
p432
aS'14.1'
p433
aS'16.1'
p434
aS'14.3'
p435
aS'11.7'
p436
aS'13.4'
p437
aS'9.6'
p438
aS'8.7'
p439
aS'8.4'
p440
aS'12.8'
p441
aS'10.5'
p442
aS'17.1'
p443
aS'18.4'
p444
aS'15.4'
p445
aS'10.8'
p446
aS'11.8'
p447
aS'14.9'
p448
aS'12.6'
p449
aS'14.1'
p450
aS'13'
p451
aS'13.4'
p452
aS'15.2'
p453
aS'16.1'
p454
aS'17.8'
p455
aS'14.9'
p456
aS'14.1'
p457
aS'12.7'
p458
aS'13.5'
p459
aS'14.9'
p460
aS'20'
p461
aS'16.4'
p462
aS'17.7'
p463
aS'19.5'
p464
aS'20.2'
p465
aS'21.4'
p466
aS'19.9'
p467
aS'19'
p468
aS'19.1'
p469
aS'19.1'
p470
aS'20.1'
p471
aS'19.9'
p472
aS'19.6'
p473
aS'23.2'
p474
aS'29.8'
p475
aS'13.8'
p476
aS'13.3'
p477
aS'16.7'
p478
aS'12'
p479
aS'14.6'
p480
aS'21.4'
p481
aS'23'
p482
aS'23.7'
p483
aS'25'
p484
aS'21.8'
p485
aS'20.6'
p486
aS'21.2'
p487
aS'19.1'
p488
aS'20.6'
p489
aS'15.2'
p490
ag416
aS'8.1'
p491
aS'13.6'
p492
aS'20.1'
p493
aS'21.8'
p494
aS'24.5'
p495
aS'23.1'
p496
aS'19.7'
p497
aS'18.3'
p498
aS'21.2'
p499
aS'17.5'
p500
aS'16.8'
p501
aS'22.4'
p502
aS'20.6'
p503
aS'23.9'
p504
aS'22'
p505
aS'11.9'
p506
asS'x'
p507
(lp508
(lp509
S'0.00632'
p510
aS'18'
p511
aS'2.31'
p512
aS'0'
p513
aS'0.538'
p514
aS'6.575'
p515
aS'65.2'
p516
aS'4.09'
p517
aS'1'
p518
aS'296'
p519
aS'15.3'
p520
aS'396.9'
p521
aS'4.98'
p522
aa(lp523
S'0.02731'
p524
ag513
aS'7.07'
p525
ag513
aS'0.469'
p526
aS'6.421'
p527
aS'78.9'
p528
aS'4.9671'
p529
aS'2'
p530
aS'242'
p531
aS'17.8'
p532
aS'396.9'
p533
aS'9.14'
p534
aa(lp535
S'0.02729'
p536
ag513
aS'7.07'
p537
ag513
aS'0.469'
p538
aS'7.185'
p539
aS'61.1'
p540
aS'4.9671'
p541
ag530
aS'242'
p542
aS'17.8'
p543
aS'392.83'
p544
aS'4.03'
p545
aa(lp546
S'0.03237'
p547
ag513
aS'2.18'
p548
ag513
aS'0.458'
p549
aS'6.998'
p550
aS'45.8'
p551
aS'6.0622'
p552
aS'3'
p553
aS'222'
p554
aS'18.7'
p555
aS'394.63'
p556
aS'2.94'
p557
aa(lp558
S'0.06905'
p559
ag513
aS'2.18'
p560
ag513
aS'0.458'
p561
aS'7.147'
p562
aS'54.2'
p563
aS'6.0622'
p564
ag553
aS'222'
p565
aS'18.7'
p566
aS'396.9'
p567
aS'5.33'
p568
aa(lp569
S'0.02985'
p570
ag513
aS'2.18'
p571
ag513
aS'0.458'
p572
aS'6.43'
p573
aS'58.7'
p574
aS'6.0622'
p575
ag553
aS'222'
p576
aS'18.7'
p577
aS'394.12'
p578
aS'5.21'
p579
aa(lp580
S'0.08829'
p581
aS'12.5'
p582
aS'7.87'
p583
ag513
aS'0.524'
p584
aS'6.012'
p585
aS'66.6'
p586
aS'5.5605'
p587
ag401
aS'311'
p588
aS'15.2'
p589
aS'395.6'
p590
aS'12.43'
p591
aa(lp592
S'0.14455'
p593
aS'12.5'
p594
aS'7.87'
p595
ag513
aS'0.524'
p596
aS'6.172'
p597
aS'96.1'
p598
aS'5.9505'
p599
ag401
aS'311'
p600
aS'15.2'
p601
aS'396.9'
p602
aS'19.15'
p603
aa(lp604
S'0.21124'
p605
aS'12.5'
p606
aS'7.87'
p607
ag513
aS'0.524'
p608
aS'5.631'
p609
aS'100'
p610
aS'6.0821'
p611
ag401
aS'311'
p612
aS'15.2'
p613
aS'386.63'
p614
aS'29.93'
p615
aa(lp616
S'0.17004'
p617
aS'12.5'
p618
aS'7.87'
p619
ag513
aS'0.524'
p620
aS'6.004'
p621
aS'85.9'
p622
aS'6.5921'
p623
ag401
aS'311'
p624
aS'15.2'
p625
aS'386.71'
p626
aS'17.1'
p627
aa(lp628
S'0.22489'
p629
aS'12.5'
p630
aS'7.87'
p631
ag513
aS'0.524'
p632
aS'6.377'
p633
aS'94.3'
p634
aS'6.3467'
p635
ag401
aS'311'
p636
aS'15.2'
p637
aS'392.52'
p638
aS'20.45'
p639
aa(lp640
S'0.11747'
p641
aS'12.5'
p642
aS'7.87'
p643
ag513
aS'0.524'
p644
aS'6.009'
p645
aS'82.9'
p646
aS'6.2267'
p647
ag401
aS'311'
p648
aS'15.2'
p649
aS'396.9'
p650
aS'13.27'
p651
aa(lp652
S'0.09378'
p653
aS'12.5'
p654
aS'7.87'
p655
ag513
aS'0.524'
p656
aS'5.889'
p657
aS'39'
p658
aS'5.4509'
p659
ag401
aS'311'
p660
aS'15.2'
p661
aS'390.5'
p662
aS'15.71'
p663
aa(lp664
S'0.62976'
p665
ag513
aS'8.14'
p666
ag513
aS'0.538'
p667
aS'5.949'
p668
aS'61.8'
p669
aS'4.7075'
p670
aS'4'
p671
aS'307'
p672
aS'21'
p673
aS'396.9'
p674
aS'8.26'
p675
aa(lp676
S'0.63796'
p677
ag513
aS'8.14'
p678
ag513
aS'0.538'
p679
aS'6.096'
p680
aS'84.5'
p681
aS'4.4619'
p682
ag671
aS'307'
p683
aS'21'
p684
aS'380.02'
p685
aS'10.26'
p686
aa(lp687
S'0.62739'
p688
ag513
aS'8.14'
p689
ag513
aS'0.538'
p690
aS'5.834'
p691
aS'56.5'
p692
aS'4.4986'
p693
ag671
aS'307'
p694
aS'21'
p695
aS'395.62'
p696
aS'8.47'
p697
aa(lp698
S'1.05393'
p699
ag513
aS'8.14'
p700
ag513
aS'0.538'
p701
aS'5.935'
p702
aS'29.3'
p703
aS'4.4986'
p704
ag671
aS'307'
p705
aS'21'
p706
aS'386.85'
p707
aS'6.58'
p708
aa(lp709
S'0.7842'
p710
ag513
aS'8.14'
p711
ag513
aS'0.538'
p712
aS'5.99'
p713
aS'81.7'
p714
aS'4.2579'
p715
ag671
aS'307'
p716
aS'21'
p717
aS'386.75'
p718
aS'14.67'
p719
aa(lp720
S'0.80271'
p721
ag513
aS'8.14'
p722
ag513
aS'0.538'
p723
aS'5.456'
p724
aS'36.6'
p725
aS'3.7965'
p726
ag671
aS'307'
p727
aS'21'
p728
aS'288.99'
p729
aS'11.69'
p730
aa(lp731
S'0.7258'
p732
ag513
aS'8.14'
p733
ag513
aS'0.538'
p734
aS'5.727'
p735
aS'69.5'
p736
aS'3.7965'
p737
ag671
aS'307'
p738
aS'21'
p739
aS'390.95'
p740
aS'11.28'
p741
aa(lp742
S'1.25179'
p743
ag513
aS'8.14'
p744
ag513
aS'0.538'
p745
aS'5.57'
p746
aS'98.1'
p747
aS'3.7979'
p748
ag671
aS'307'
p749
aS'21'
p750
aS'376.57'
p751
aS'21.02'
p752
aa(lp753
S'0.85204'
p754
ag513
aS'8.14'
p755
ag513
aS'0.538'
p756
aS'5.965'
p757
aS'89.2'
p758
aS'4.0123'
p759
ag671
aS'307'
p760
aS'21'
p761
aS'392.53'
p762
aS'13.83'
p763
aa(lp764
S'1.23247'
p765
ag513
aS'8.14'
p766
ag513
aS'0.538'
p767
aS'6.142'
p768
aS'91.7'
p769
aS'3.9769'
p770
ag671
aS'307'
p771
aS'21'
p772
aS'396.9'
p773
aS'18.72'
p774
aa(lp775
S'0.98843'
p776
ag513
aS'8.14'
p777
ag513
aS'0.538'
p778
aS'5.813'
p779
aS'100'
p780
aS'4.0952'
p781
ag671
aS'307'
p782
aS'21'
p783
aS'394.54'
p784
aS'19.88'
p785
aa(lp786
S'0.75026'
p787
ag513
aS'8.14'
p788
ag513
aS'0.538'
p789
aS'5.924'
p790
aS'94.1'
p791
aS'4.3996'
p792
ag671
aS'307'
p793
aS'21'
p794
aS'394.33'
p795
aS'16.3'
p796
aa(lp797
S'0.84054'
p798
ag513
aS'8.14'
p799
ag513
aS'0.538'
p800
aS'5.599'
p801
aS'85.7'
p802
aS'4.4546'
p803
ag671
aS'307'
p804
aS'21'
p805
aS'303.42'
p806
aS'16.51'
p807
aa(lp808
S'0.67191'
p809
ag513
aS'8.14'
p810
ag513
aS'0.538'
p811
aS'5.813'
p812
aS'90.3'
p813
aS'4.682'
p814
ag671
aS'307'
p815
aS'21'
p816
aS'376.88'
p817
aS'14.81'
p818
aa(lp819
S'0.95577'
p820
ag513
aS'8.14'
p821
ag513
aS'0.538'
p822
aS'6.047'
p823
aS'88.8'
p824
aS'4.4534'
p825
ag671
aS'307'
p826
aS'21'
p827
aS'306.38'
p828
aS'17.28'
p829
aa(lp830
S'0.77299'
p831
ag513
aS'8.14'
p832
ag513
aS'0.538'
p833
aS'6.495'
p834
aS'94.4'
p835
aS'4.4547'
p836
ag671
aS'307'
p837
aS'21'
p838
aS'387.94'
p839
aS'12.8'
p840
aa(lp841
S'1.00245'
p842
ag513
aS'8.14'
p843
ag513
aS'0.538'
p844
aS'6.674'
p845
aS'87.3'
p846
aS'4.239'
p847
ag671
aS'307'
p848
aS'21'
p849
aS'380.23'
p850
aS'11.98'
p851
aa(lp852
S'1.13081'
p853
ag513
aS'8.14'
p854
ag513
aS'0.538'
p855
aS'5.713'
p856
aS'94.1'
p857
aS'4.233'
p858
ag671
aS'307'
p859
aS'21'
p860
aS'360.17'
p861
aS'22.6'
p862
aa(lp863
S'1.35472'
p864
ag513
aS'8.14'
p865
ag513
aS'0.538'
p866
aS'6.072'
p867
aS'100'
p868
aS'4.175'
p869
ag671
aS'307'
p870
aS'21'
p871
aS'376.73'
p872
aS'13.04'
p873
aa(lp874
S'1.38799'
p875
ag513
aS'8.14'
p876
ag513
aS'0.538'
p877
aS'5.95'
p878
aS'82'
p879
aS'3.99'
p880
ag671
aS'307'
p881
aS'21'
p882
aS'232.6'
p883
aS'27.71'
p884
aa(lp885
S'1.15172'
p886
ag513
aS'8.14'
p887
ag513
aS'0.538'
p888
aS'5.701'
p889
aS'95'
p890
aS'3.7872'
p891
ag671
aS'307'
p892
aS'21'
p893
aS'358.77'
p894
aS'18.35'
p895
aa(lp896
S'1.61282'
p897
ag513
aS'8.14'
p898
ag513
aS'0.538'
p899
aS'6.096'
p900
aS'96.9'
p901
aS'3.7598'
p902
ag671
aS'307'
p903
aS'21'
p904
aS'248.31'
p905
aS'20.34'
p906
aa(lp907
S'0.06417'
p908
ag513
aS'5.96'
p909
ag513
aS'0.499'
p910
aS'5.933'
p911
aS'68.2'
p912
aS'3.3603'
p913
ag401
aS'279'
p914
aS'19.2'
p915
aS'396.9'
p916
aS'9.68'
p917
aa(lp918
S'0.09744'
p919
ag513
aS'5.96'
p920
ag513
aS'0.499'
p921
aS'5.841'
p922
aS'61.4'
p923
aS'3.3779'
p924
ag401
aS'279'
p925
aS'19.2'
p926
aS'377.56'
p927
aS'11.41'
p928
aa(lp929
S'0.08014'
p930
ag513
aS'5.96'
p931
ag513
aS'0.499'
p932
aS'5.85'
p933
aS'41.5'
p934
aS'3.9342'
p935
ag401
aS'279'
p936
aS'19.2'
p937
aS'396.9'
p938
aS'8.77'
p939
aa(lp940
S'0.17505'
p941
ag513
aS'5.96'
p942
ag513
aS'0.499'
p943
aS'5.966'
p944
aS'30.2'
p945
aS'3.8473'
p946
ag401
aS'279'
p947
aS'19.2'
p948
aS'393.43'
p949
aS'10.13'
p950
aa(lp951
S'0.02763'
p952
aS'75'
p953
aS'2.95'
p954
ag513
aS'0.428'
p955
aS'6.595'
p956
aS'21.8'
p957
aS'5.4011'
p958
ag553
aS'252'
p959
aS'18.3'
p960
aS'395.63'
p961
aS'4.32'
p962
aa(lp963
S'0.03359'
p964
aS'75'
p965
aS'2.95'
p966
ag513
aS'0.428'
p967
aS'7.024'
p968
aS'15.8'
p969
aS'5.4011'
p970
ag553
aS'252'
p971
aS'18.3'
p972
aS'395.62'
p973
aS'1.98'
p974
aa(lp975
S'0.12744'
p976
ag513
aS'6.91'
p977
ag513
aS'0.448'
p978
aS'6.77'
p979
aS'2.9'
p980
aS'5.7209'
p981
ag553
aS'233'
p982
aS'17.9'
p983
aS'385.41'
p984
aS'4.84'
p985
aa(lp986
S'0.1415'
p987
ag513
aS'6.91'
p988
ag513
aS'0.448'
p989
aS'6.169'
p990
aS'6.6'
p991
aS'5.7209'
p992
ag553
aS'233'
p993
aS'17.9'
p994
aS'383.37'
p995
aS'5.81'
p996
aa(lp997
S'0.15936'
p998
ag513
aS'6.91'
p999
ag513
aS'0.448'
p1000
aS'6.211'
p1001
aS'6.5'
p1002
aS'5.7209'
p1003
ag553
aS'233'
p1004
aS'17.9'
p1005
aS'394.46'
p1006
aS'7.44'
p1007
aa(lp1008
S'0.12269'
p1009
ag513
aS'6.91'
p1010
ag513
aS'0.448'
p1011
aS'6.069'
p1012
aS'40'
p1013
aS'5.7209'
p1014
ag553
aS'233'
p1015
aS'17.9'
p1016
aS'389.39'
p1017
aS'9.55'
p1018
aa(lp1019
S'0.17142'
p1020
ag513
aS'6.91'
p1021
ag513
aS'0.448'
p1022
aS'5.682'
p1023
aS'33.8'
p1024
aS'5.1004'
p1025
ag553
aS'233'
p1026
aS'17.9'
p1027
aS'396.9'
p1028
aS'10.21'
p1029
aa(lp1030
S'0.18836'
p1031
ag513
aS'6.91'
p1032
ag513
aS'0.448'
p1033
aS'5.786'
p1034
aS'33.3'
p1035
aS'5.1004'
p1036
ag553
aS'233'
p1037
aS'17.9'
p1038
aS'396.9'
p1039
aS'14.15'
p1040
aa(lp1041
S'0.22927'
p1042
ag513
aS'6.91'
p1043
ag513
aS'0.448'
p1044
aS'6.03'
p1045
aS'85.5'
p1046
aS'5.6894'
p1047
ag553
aS'233'
p1048
aS'17.9'
p1049
aS'392.74'
p1050
aS'18.8'
p1051
aa(lp1052
S'0.25387'
p1053
ag513
aS'6.91'
p1054
ag513
aS'0.448'
p1055
aS'5.399'
p1056
aS'95.3'
p1057
aS'5.87'
p1058
ag553
aS'233'
p1059
aS'17.9'
p1060
aS'396.9'
p1061
aS'30.81'
p1062
aa(lp1063
S'0.21977'
p1064
ag513
aS'6.91'
p1065
ag513
aS'0.448'
p1066
aS'5.602'
p1067
aS'62'
p1068
aS'6.0877'
p1069
ag553
aS'233'
p1070
aS'17.9'
p1071
aS'396.9'
p1072
aS'16.2'
p1073
aa(lp1074
S'0.08873'
p1075
aS'21'
p1076
aS'5.64'
p1077
ag513
aS'0.439'
p1078
aS'5.963'
p1079
aS'45.7'
p1080
aS'6.8147'
p1081
ag671
aS'243'
p1082
aS'16.8'
p1083
aS'395.56'
p1084
aS'13.45'
p1085
aa(lp1086
S'0.04337'
p1087
aS'21'
p1088
aS'5.64'
p1089
ag513
aS'0.439'
p1090
aS'6.115'
p1091
aS'63'
p1092
aS'6.8147'
p1093
ag671
aS'243'
p1094
aS'16.8'
p1095
aS'393.97'
p1096
aS'9.43'
p1097
aa(lp1098
S'0.0536'
p1099
aS'21'
p1100
aS'5.64'
p1101
ag513
aS'0.439'
p1102
aS'6.511'
p1103
aS'21.1'
p1104
aS'6.8147'
p1105
ag671
aS'243'
p1106
aS'16.8'
p1107
aS'396.9'
p1108
aS'5.28'
p1109
aa(lp1110
S'0.04981'
p1111
aS'21'
p1112
aS'5.64'
p1113
ag513
aS'0.439'
p1114
aS'5.998'
p1115
aS'21.4'
p1116
aS'6.8147'
p1117
ag671
aS'243'
p1118
aS'16.8'
p1119
aS'396.9'
p1120
aS'8.43'
p1121
aa(lp1122
S'0.0136'
p1123
aS'75'
p1124
ag671
ag513
aS'0.41'
p1125
aS'5.888'
p1126
aS'47.6'
p1127
aS'7.3197'
p1128
ag553
aS'469'
p1129
aS'21.1'
p1130
aS'396.9'
p1131
aS'14.8'
p1132
aa(lp1133
S'0.01311'
p1134
aS'90'
p1135
aS'1.22'
p1136
ag513
aS'0.403'
p1137
aS'7.249'
p1138
aS'21.9'
p1139
aS'8.6966'
p1140
ag401
aS'226'
p1141
aS'17.9'
p1142
aS'395.93'
p1143
aS'4.81'
p1144
aa(lp1145
S'0.02055'
p1146
aS'85'
p1147
aS'0.74'
p1148
ag513
aS'0.41'
p1149
aS'6.383'
p1150
aS'35.7'
p1151
aS'9.1876'
p1152
ag530
aS'313'
p1153
aS'17.3'
p1154
aS'396.9'
p1155
aS'5.77'
p1156
aa(lp1157
S'0.01432'
p1158
aS'100'
p1159
aS'1.32'
p1160
ag513
aS'0.411'
p1161
aS'6.816'
p1162
aS'40.5'
p1163
aS'8.3248'
p1164
ag401
aS'256'
p1165
aS'15.1'
p1166
aS'392.9'
p1167
aS'3.95'
p1168
aa(lp1169
S'0.15445'
p1170
aS'25'
p1171
aS'5.13'
p1172
ag513
aS'0.453'
p1173
aS'6.145'
p1174
aS'29.2'
p1175
aS'7.8148'
p1176
aS'8'
p1177
aS'284'
p1178
aS'19.7'
p1179
aS'390.68'
p1180
aS'6.86'
p1181
aa(lp1182
S'0.10328'
p1183
aS'25'
p1184
aS'5.13'
p1185
ag513
aS'0.453'
p1186
aS'5.927'
p1187
aS'47.2'
p1188
aS'6.932'
p1189
ag1177
aS'284'
p1190
aS'19.7'
p1191
aS'396.9'
p1192
aS'9.22'
p1193
aa(lp1194
S'0.14932'
p1195
aS'25'
p1196
aS'5.13'
p1197
ag513
aS'0.453'
p1198
aS'5.741'
p1199
aS'66.2'
p1200
aS'7.2254'
p1201
ag1177
aS'284'
p1202
aS'19.7'
p1203
aS'395.11'
p1204
aS'13.15'
p1205
aa(lp1206
S'0.17171'
p1207
aS'25'
p1208
aS'5.13'
p1209
ag513
aS'0.453'
p1210
aS'5.966'
p1211
aS'93.4'
p1212
aS'6.8185'
p1213
ag1177
aS'284'
p1214
aS'19.7'
p1215
aS'378.08'
p1216
aS'14.44'
p1217
aa(lp1218
S'0.11027'
p1219
aS'25'
p1220
aS'5.13'
p1221
ag513
aS'0.453'
p1222
aS'6.456'
p1223
aS'67.8'
p1224
aS'7.2255'
p1225
ag1177
aS'284'
p1226
aS'19.7'
p1227
aS'396.9'
p1228
aS'6.73'
p1229
aa(lp1230
S'0.1265'
p1231
aS'25'
p1232
aS'5.13'
p1233
ag513
aS'0.453'
p1234
aS'6.762'
p1235
aS'43.4'
p1236
aS'7.9809'
p1237
ag1177
aS'284'
p1238
aS'19.7'
p1239
aS'395.58'
p1240
aS'9.5'
p1241
aa(lp1242
S'0.01951'
p1243
aS'17.5'
p1244
aS'1.38'
p1245
ag513
aS'0.4161'
p1246
aS'7.104'
p1247
aS'59.5'
p1248
aS'9.2229'
p1249
ag553
aS'216'
p1250
aS'18.6'
p1251
aS'393.24'
p1252
aS'8.05'
p1253
aa(lp1254
S'0.03584'
p1255
aS'80'
p1256
aS'3.37'
p1257
ag513
aS'0.398'
p1258
aS'6.29'
p1259
aS'17.8'
p1260
aS'6.6115'
p1261
ag671
aS'337'
p1262
aS'16.1'
p1263
aS'396.9'
p1264
aS'4.67'
p1265
aa(lp1266
S'0.04379'
p1267
aS'80'
p1268
aS'3.37'
p1269
ag513
aS'0.398'
p1270
aS'5.787'
p1271
aS'31.1'
p1272
aS'6.6115'
p1273
ag671
aS'337'
p1274
aS'16.1'
p1275
aS'396.9'
p1276
aS'10.24'
p1277
aa(lp1278
S'0.05789'
p1279
aS'12.5'
p1280
aS'6.07'
p1281
ag513
aS'0.409'
p1282
aS'5.878'
p1283
aS'21.4'
p1284
aS'6.498'
p1285
ag671
aS'345'
p1286
aS'18.9'
p1287
aS'396.21'
p1288
aS'8.1'
p1289
aa(lp1290
S'0.13554'
p1291
aS'12.5'
p1292
aS'6.07'
p1293
ag513
aS'0.409'
p1294
aS'5.594'
p1295
aS'36.8'
p1296
aS'6.498'
p1297
ag671
aS'345'
p1298
aS'18.9'
p1299
aS'396.9'
p1300
aS'13.09'
p1301
aa(lp1302
S'0.12816'
p1303
aS'12.5'
p1304
aS'6.07'
p1305
ag513
aS'0.409'
p1306
aS'5.885'
p1307
aS'33'
p1308
aS'6.498'
p1309
ag671
aS'345'
p1310
aS'18.9'
p1311
aS'396.9'
p1312
aS'8.79'
p1313
aa(lp1314
S'0.08826'
p1315
ag513
aS'10.81'
p1316
ag513
aS'0.413'
p1317
aS'6.417'
p1318
aS'6.6'
p1319
aS'5.2873'
p1320
ag671
aS'305'
p1321
aS'19.2'
p1322
aS'383.73'
p1323
aS'6.72'
p1324
aa(lp1325
S'0.15876'
p1326
ag513
aS'10.81'
p1327
ag513
aS'0.413'
p1328
aS'5.961'
p1329
aS'17.5'
p1330
aS'5.2873'
p1331
ag671
aS'305'
p1332
aS'19.2'
p1333
aS'376.94'
p1334
aS'9.88'
p1335
aa(lp1336
S'0.09164'
p1337
ag513
aS'10.81'
p1338
ag513
aS'0.413'
p1339
aS'6.065'
p1340
aS'7.8'
p1341
aS'5.2873'
p1342
ag671
aS'305'
p1343
aS'19.2'
p1344
aS'390.91'
p1345
aS'5.52'
p1346
aa(lp1347
S'0.19539'
p1348
ag513
aS'10.81'
p1349
ag513
aS'0.413'
p1350
aS'6.245'
p1351
aS'6.2'
p1352
aS'5.2873'
p1353
ag671
aS'305'
p1354
aS'19.2'
p1355
aS'377.17'
p1356
aS'7.54'
p1357
aa(lp1358
S'0.07896'
p1359
ag513
aS'12.83'
p1360
ag513
aS'0.437'
p1361
aS'6.273'
p1362
aS'6'
p1363
aS'4.2515'
p1364
ag401
aS'398'
p1365
aS'18.7'
p1366
aS'394.92'
p1367
aS'6.78'
p1368
aa(lp1369
S'0.09512'
p1370
ag513
aS'12.83'
p1371
ag513
aS'0.437'
p1372
aS'6.286'
p1373
aS'45'
p1374
aS'4.5026'
p1375
ag401
aS'398'
p1376
aS'18.7'
p1377
aS'383.23'
p1378
aS'8.94'
p1379
aa(lp1380
S'0.10153'
p1381
ag513
aS'12.83'
p1382
ag513
aS'0.437'
p1383
aS'6.279'
p1384
aS'74.5'
p1385
aS'4.0522'
p1386
ag401
aS'398'
p1387
aS'18.7'
p1388
aS'373.66'
p1389
aS'11.97'
p1390
aa(lp1391
S'0.08707'
p1392
ag513
aS'12.83'
p1393
ag513
aS'0.437'
p1394
aS'6.14'
p1395
aS'45.8'
p1396
aS'4.0905'
p1397
ag401
aS'398'
p1398
aS'18.7'
p1399
aS'386.96'
p1400
aS'10.27'
p1401
aa(lp1402
S'0.05646'
p1403
ag513
aS'12.83'
p1404
ag513
aS'0.437'
p1405
aS'6.232'
p1406
aS'53.7'
p1407
aS'5.0141'
p1408
ag401
aS'398'
p1409
aS'18.7'
p1410
aS'386.4'
p1411
aS'12.34'
p1412
aa(lp1413
S'0.08387'
p1414
ag513
aS'12.83'
p1415
ag513
aS'0.437'
p1416
aS'5.874'
p1417
aS'36.6'
p1418
aS'4.5026'
p1419
ag401
aS'398'
p1420
aS'18.7'
p1421
aS'396.06'
p1422
aS'9.1'
p1423
aa(lp1424
S'0.04113'
p1425
aS'25'
p1426
aS'4.86'
p1427
ag513
aS'0.426'
p1428
aS'6.727'
p1429
aS'33.5'
p1430
aS'5.4007'
p1431
ag671
aS'281'
p1432
aS'19'
p1433
aS'396.9'
p1434
aS'5.29'
p1435
aa(lp1436
S'0.04462'
p1437
aS'25'
p1438
aS'4.86'
p1439
ag513
aS'0.426'
p1440
aS'6.619'
p1441
aS'70.4'
p1442
aS'5.4007'
p1443
ag671
aS'281'
p1444
aS'19'
p1445
aS'395.63'
p1446
aS'7.22'
p1447
aa(lp1448
S'0.03659'
p1449
aS'25'
p1450
aS'4.86'
p1451
ag513
aS'0.426'
p1452
aS'6.302'
p1453
aS'32.2'
p1454
aS'5.4007'
p1455
ag671
aS'281'
p1456
aS'19'
p1457
aS'396.9'
p1458
aS'6.72'
p1459
aa(lp1460
S'0.03551'
p1461
aS'25'
p1462
aS'4.86'
p1463
ag513
aS'0.426'
p1464
aS'6.167'
p1465
aS'46.7'
p1466
aS'5.4007'
p1467
ag671
aS'281'
p1468
aS'19'
p1469
aS'390.64'
p1470
aS'7.51'
p1471
aa(lp1472
S'0.05059'
p1473
ag513
aS'4.49'
p1474
ag513
aS'0.449'
p1475
aS'6.389'
p1476
aS'48'
p1477
aS'4.7794'
p1478
ag553
aS'247'
p1479
aS'18.5'
p1480
aS'396.9'
p1481
aS'9.62'
p1482
aa(lp1483
S'0.05735'
p1484
ag513
aS'4.49'
p1485
ag513
aS'0.449'
p1486
aS'6.63'
p1487
aS'56.1'
p1488
aS'4.4377'
p1489
ag553
aS'247'
p1490
aS'18.5'
p1491
aS'392.3'
p1492
aS'6.53'
p1493
aa(lp1494
S'0.05188'
p1495
ag513
aS'4.49'
p1496
ag513
aS'0.449'
p1497
aS'6.015'
p1498
aS'45.1'
p1499
aS'4.4272'
p1500
ag553
aS'247'
p1501
aS'18.5'
p1502
aS'395.99'
p1503
aS'12.86'
p1504
aa(lp1505
S'0.07151'
p1506
ag513
aS'4.49'
p1507
ag513
aS'0.449'
p1508
aS'6.121'
p1509
aS'56.8'
p1510
aS'3.7476'
p1511
ag553
aS'247'
p1512
aS'18.5'
p1513
aS'395.15'
p1514
aS'8.44'
p1515
aa(lp1516
S'0.0566'
p1517
ag513
aS'3.41'
p1518
ag513
aS'0.489'
p1519
aS'7.007'
p1520
aS'86.3'
p1521
aS'3.4217'
p1522
ag530
aS'270'
p1523
aS'17.8'
p1524
aS'396.9'
p1525
aS'5.5'
p1526
aa(lp1527
S'0.05302'
p1528
ag513
aS'3.41'
p1529
ag513
aS'0.489'
p1530
aS'7.079'
p1531
aS'63.1'
p1532
aS'3.4145'
p1533
ag530
aS'270'
p1534
aS'17.8'
p1535
aS'396.06'
p1536
aS'5.7'
p1537
aa(lp1538
S'0.04684'
p1539
ag513
aS'3.41'
p1540
ag513
aS'0.489'
p1541
aS'6.417'
p1542
aS'66.1'
p1543
aS'3.0923'
p1544
ag530
aS'270'
p1545
aS'17.8'
p1546
aS'392.18'
p1547
aS'8.81'
p1548
aa(lp1549
S'0.03932'
p1550
ag513
aS'3.41'
p1551
ag513
aS'0.489'
p1552
aS'6.405'
p1553
aS'73.9'
p1554
aS'3.0921'
p1555
ag530
aS'270'
p1556
aS'17.8'
p1557
aS'393.55'
p1558
aS'8.2'
p1559
aa(lp1560
S'0.04203'
p1561
aS'28'
p1562
aS'15.04'
p1563
ag513
aS'0.464'
p1564
aS'6.442'
p1565
aS'53.6'
p1566
aS'3.6659'
p1567
ag671
aS'270'
p1568
aS'18.2'
p1569
aS'395.01'
p1570
aS'8.16'
p1571
aa(lp1572
S'0.02875'
p1573
aS'28'
p1574
aS'15.04'
p1575
ag513
aS'0.464'
p1576
aS'6.211'
p1577
aS'28.9'
p1578
aS'3.6659'
p1579
ag671
aS'270'
p1580
aS'18.2'
p1581
aS'396.33'
p1582
aS'6.21'
p1583
aa(lp1584
S'0.04294'
p1585
aS'28'
p1586
aS'15.04'
p1587
ag513
aS'0.464'
p1588
aS'6.249'
p1589
aS'77.3'
p1590
aS'3.615'
p1591
ag671
aS'270'
p1592
aS'18.2'
p1593
aS'396.9'
p1594
aS'10.59'
p1595
aa(lp1596
S'0.12204'
p1597
ag513
aS'2.89'
p1598
ag513
aS'0.445'
p1599
aS'6.625'
p1600
aS'57.8'
p1601
aS'3.4952'
p1602
ag530
aS'276'
p1603
aS'18'
p1604
aS'357.98'
p1605
aS'6.65'
p1606
aa(lp1607
S'0.11504'
p1608
ag513
aS'2.89'
p1609
ag513
aS'0.445'
p1610
aS'6.163'
p1611
aS'69.6'
p1612
aS'3.4952'
p1613
ag530
aS'276'
p1614
aS'18'
p1615
aS'391.83'
p1616
aS'11.34'
p1617
aa(lp1618
S'0.12083'
p1619
ag513
aS'2.89'
p1620
ag513
aS'0.445'
p1621
aS'8.069'
p1622
aS'76'
p1623
aS'3.4952'
p1624
ag530
aS'276'
p1625
aS'18'
p1626
aS'396.9'
p1627
aS'4.21'
p1628
aa(lp1629
S'0.08187'
p1630
ag513
aS'2.89'
p1631
ag513
aS'0.445'
p1632
aS'7.82'
p1633
aS'36.9'
p1634
aS'3.4952'
p1635
ag530
aS'276'
p1636
aS'18'
p1637
aS'393.53'
p1638
aS'3.57'
p1639
aa(lp1640
S'0.0686'
p1641
ag513
aS'2.89'
p1642
ag513
aS'0.445'
p1643
aS'7.416'
p1644
aS'62.5'
p1645
aS'3.4952'
p1646
ag530
aS'276'
p1647
aS'18'
p1648
aS'396.9'
p1649
aS'6.19'
p1650
aa(lp1651
S'0.14866'
p1652
ag513
aS'8.56'
p1653
ag513
aS'0.52'
p1654
aS'6.727'
p1655
aS'79.9'
p1656
aS'2.7778'
p1657
ag401
aS'384'
p1658
aS'20.9'
p1659
aS'394.76'
p1660
aS'9.42'
p1661
aa(lp1662
S'0.11432'
p1663
ag513
aS'8.56'
p1664
ag513
aS'0.52'
p1665
aS'6.781'
p1666
aS'71.3'
p1667
aS'2.8561'
p1668
ag401
aS'384'
p1669
aS'20.9'
p1670
aS'395.58'
p1671
aS'7.67'
p1672
aa(lp1673
S'0.22876'
p1674
ag513
aS'8.56'
p1675
ag513
aS'0.52'
p1676
aS'6.405'
p1677
aS'85.4'
p1678
aS'2.7147'
p1679
ag401
aS'384'
p1680
aS'20.9'
p1681
aS'70.8'
p1682
aS'10.63'
p1683
aa(lp1684
S'0.21161'
p1685
ag513
aS'8.56'
p1686
ag513
aS'0.52'
p1687
aS'6.137'
p1688
aS'87.4'
p1689
aS'2.7147'
p1690
ag401
aS'384'
p1691
aS'20.9'
p1692
aS'394.47'
p1693
aS'13.44'
p1694
aa(lp1695
S'0.1396'
p1696
ag513
aS'8.56'
p1697
ag513
aS'0.52'
p1698
aS'6.167'
p1699
aS'90'
p1700
aS'2.421'
p1701
ag401
aS'384'
p1702
aS'20.9'
p1703
aS'392.69'
p1704
aS'12.33'
p1705
aa(lp1706
S'0.13262'
p1707
ag513
aS'8.56'
p1708
ag513
aS'0.52'
p1709
aS'5.851'
p1710
aS'96.7'
p1711
aS'2.1069'
p1712
ag401
aS'384'
p1713
aS'20.9'
p1714
aS'394.05'
p1715
aS'16.47'
p1716
aa(lp1717
S'0.1712'
p1718
ag513
aS'8.56'
p1719
ag513
aS'0.52'
p1720
aS'5.836'
p1721
aS'91.9'
p1722
aS'2.211'
p1723
ag401
aS'384'
p1724
aS'20.9'
p1725
aS'395.67'
p1726
aS'18.66'
p1727
aa(lp1728
S'0.13117'
p1729
ag513
aS'8.56'
p1730
ag513
aS'0.52'
p1731
aS'6.127'
p1732
aS'85.2'
p1733
aS'2.1224'
p1734
ag401
aS'384'
p1735
aS'20.9'
p1736
aS'387.69'
p1737
aS'14.09'
p1738
aa(lp1739
S'0.12802'
p1740
ag513
aS'8.56'
p1741
ag513
aS'0.52'
p1742
aS'6.474'
p1743
aS'97.1'
p1744
aS'2.4329'
p1745
ag401
aS'384'
p1746
aS'20.9'
p1747
aS'395.24'
p1748
aS'12.27'
p1749
aa(lp1750
S'0.26363'
p1751
ag513
aS'8.56'
p1752
ag513
aS'0.52'
p1753
aS'6.229'
p1754
aS'91.2'
p1755
aS'2.5451'
p1756
ag401
aS'384'
p1757
aS'20.9'
p1758
aS'391.23'
p1759
aS'15.55'
p1760
aa(lp1761
S'0.10793'
p1762
ag513
aS'8.56'
p1763
ag513
aS'0.52'
p1764
aS'6.195'
p1765
aS'54.4'
p1766
aS'2.7778'
p1767
ag401
aS'384'
p1768
aS'20.9'
p1769
aS'393.49'
p1770
aS'13'
p1771
aa(lp1772
S'0.10084'
p1773
ag513
aS'10.01'
p1774
ag513
aS'0.547'
p1775
aS'6.715'
p1776
aS'81.6'
p1777
aS'2.6775'
p1778
ag1363
aS'432'
p1779
aS'17.8'
p1780
aS'395.59'
p1781
aS'10.16'
p1782
aa(lp1783
S'0.12329'
p1784
ag513
aS'10.01'
p1785
ag513
aS'0.547'
p1786
aS'5.913'
p1787
aS'92.9'
p1788
aS'2.3534'
p1789
ag1363
aS'432'
p1790
aS'17.8'
p1791
aS'394.95'
p1792
aS'16.21'
p1793
aa(lp1794
S'0.22212'
p1795
ag513
aS'10.01'
p1796
ag513
aS'0.547'
p1797
aS'6.092'
p1798
aS'95.4'
p1799
aS'2.548'
p1800
ag1363
aS'432'
p1801
aS'17.8'
p1802
aS'396.9'
p1803
aS'17.09'
p1804
aa(lp1805
S'0.14231'
p1806
ag513
aS'10.01'
p1807
ag513
aS'0.547'
p1808
aS'6.254'
p1809
aS'84.2'
p1810
aS'2.2565'
p1811
ag1363
aS'432'
p1812
aS'17.8'
p1813
aS'388.74'
p1814
aS'10.45'
p1815
aa(lp1816
S'0.17134'
p1817
ag513
aS'10.01'
p1818
ag513
aS'0.547'
p1819
aS'5.928'
p1820
aS'88.2'
p1821
aS'2.4631'
p1822
ag1363
aS'432'
p1823
aS'17.8'
p1824
aS'344.91'
p1825
aS'15.76'
p1826
aa(lp1827
S'0.13158'
p1828
ag513
aS'10.01'
p1829
ag513
aS'0.547'
p1830
aS'6.176'
p1831
aS'72.5'
p1832
aS'2.7301'
p1833
ag1363
aS'432'
p1834
aS'17.8'
p1835
aS'393.3'
p1836
aS'12.04'
p1837
aa(lp1838
S'0.15098'
p1839
ag513
aS'10.01'
p1840
ag513
aS'0.547'
p1841
aS'6.021'
p1842
aS'82.6'
p1843
aS'2.7474'
p1844
ag1363
aS'432'
p1845
aS'17.8'
p1846
aS'394.51'
p1847
aS'10.3'
p1848
aa(lp1849
S'0.13058'
p1850
ag513
aS'10.01'
p1851
ag513
aS'0.547'
p1852
aS'5.872'
p1853
aS'73.1'
p1854
aS'2.4775'
p1855
ag1363
aS'432'
p1856
aS'17.8'
p1857
aS'338.63'
p1858
aS'15.37'
p1859
aa(lp1860
S'0.14476'
p1861
ag513
aS'10.01'
p1862
ag513
aS'0.547'
p1863
aS'5.731'
p1864
aS'65.2'
p1865
aS'2.7592'
p1866
ag1363
aS'432'
p1867
aS'17.8'
p1868
aS'391.5'
p1869
aS'13.61'
p1870
aa(lp1871
S'0.06899'
p1872
ag513
aS'25.65'
p1873
ag513
aS'0.581'
p1874
aS'5.87'
p1875
aS'69.7'
p1876
aS'2.2577'
p1877
ag530
aS'188'
p1878
aS'19.1'
p1879
aS'389.15'
p1880
aS'14.37'
p1881
aa(lp1882
S'0.07165'
p1883
ag513
aS'25.65'
p1884
ag513
aS'0.581'
p1885
aS'6.004'
p1886
aS'84.1'
p1887
aS'2.1974'
p1888
ag530
aS'188'
p1889
aS'19.1'
p1890
aS'377.67'
p1891
aS'14.27'
p1892
aa(lp1893
S'0.09299'
p1894
ag513
aS'25.65'
p1895
ag513
aS'0.581'
p1896
aS'5.961'
p1897
aS'92.9'
p1898
aS'2.0869'
p1899
ag530
aS'188'
p1900
aS'19.1'
p1901
aS'378.09'
p1902
aS'17.93'
p1903
aa(lp1904
S'0.15038'
p1905
ag513
aS'25.65'
p1906
ag513
aS'0.581'
p1907
aS'5.856'
p1908
aS'97'
p1909
aS'1.9444'
p1910
ag530
aS'188'
p1911
aS'19.1'
p1912
aS'370.31'
p1913
aS'25.41'
p1914
aa(lp1915
S'0.09849'
p1916
ag513
aS'25.65'
p1917
ag513
aS'0.581'
p1918
aS'5.879'
p1919
aS'95.8'
p1920
aS'2.0063'
p1921
ag530
aS'188'
p1922
aS'19.1'
p1923
aS'379.38'
p1924
aS'17.58'
p1925
aa(lp1926
S'0.16902'
p1927
ag513
aS'25.65'
p1928
ag513
aS'0.581'
p1929
aS'5.986'
p1930
aS'88.4'
p1931
aS'1.9929'
p1932
ag530
aS'188'
p1933
aS'19.1'
p1934
aS'385.02'
p1935
aS'14.81'
p1936
aa(lp1937
S'0.38735'
p1938
ag513
aS'25.65'
p1939
ag513
aS'0.581'
p1940
aS'5.613'
p1941
aS'95.6'
p1942
aS'1.7572'
p1943
ag530
aS'188'
p1944
aS'19.1'
p1945
aS'359.29'
p1946
aS'27.26'
p1947
aa(lp1948
S'0.25915'
p1949
ag513
aS'21.89'
p1950
ag513
aS'0.624'
p1951
aS'5.693'
p1952
aS'96'
p1953
aS'1.7883'
p1954
ag671
aS'437'
p1955
aS'21.2'
p1956
aS'392.11'
p1957
aS'17.19'
p1958
aa(lp1959
S'0.32543'
p1960
ag513
aS'21.89'
p1961
ag513
aS'0.624'
p1962
aS'6.431'
p1963
aS'98.8'
p1964
aS'1.8125'
p1965
ag671
aS'437'
p1966
aS'21.2'
p1967
aS'396.9'
p1968
aS'15.39'
p1969
aa(lp1970
S'0.88125'
p1971
ag513
aS'21.89'
p1972
ag513
aS'0.624'
p1973
aS'5.637'
p1974
aS'94.7'
p1975
aS'1.9799'
p1976
ag671
aS'437'
p1977
aS'21.2'
p1978
aS'396.9'
p1979
aS'18.34'
p1980
aa(lp1981
S'0.34006'
p1982
ag513
aS'21.89'
p1983
ag513
aS'0.624'
p1984
aS'6.458'
p1985
aS'98.9'
p1986
aS'2.1185'
p1987
ag671
aS'437'
p1988
aS'21.2'
p1989
aS'395.04'
p1990
aS'12.6'
p1991
aa(lp1992
S'1.19294'
p1993
ag513
aS'21.89'
p1994
ag513
aS'0.624'
p1995
aS'6.326'
p1996
aS'97.7'
p1997
aS'2.271'
p1998
ag671
aS'437'
p1999
aS'21.2'
p2000
aS'396.9'
p2001
aS'12.26'
p2002
aa(lp2003
S'0.59005'
p2004
ag513
aS'21.89'
p2005
ag513
aS'0.624'
p2006
aS'6.372'
p2007
aS'97.9'
p2008
aS'2.3274'
p2009
ag671
aS'437'
p2010
aS'21.2'
p2011
aS'385.76'
p2012
aS'11.12'
p2013
aa(lp2014
S'0.32982'
p2015
ag513
aS'21.89'
p2016
ag513
aS'0.624'
p2017
aS'5.822'
p2018
aS'95.4'
p2019
aS'2.4699'
p2020
ag671
aS'437'
p2021
aS'21.2'
p2022
aS'388.69'
p2023
aS'15.03'
p2024
aa(lp2025
S'0.97617'
p2026
ag513
aS'21.89'
p2027
ag513
aS'0.624'
p2028
aS'5.757'
p2029
aS'98.4'
p2030
aS'2.346'
p2031
ag671
aS'437'
p2032
aS'21.2'
p2033
aS'262.76'
p2034
aS'17.31'
p2035
aa(lp2036
S'0.55778'
p2037
ag513
aS'21.89'
p2038
ag513
aS'0.624'
p2039
aS'6.335'
p2040
aS'98.2'
p2041
aS'2.1107'
p2042
ag671
aS'437'
p2043
aS'21.2'
p2044
aS'394.67'
p2045
aS'16.96'
p2046
aa(lp2047
S'0.32264'
p2048
ag513
aS'21.89'
p2049
ag513
aS'0.624'
p2050
aS'5.942'
p2051
aS'93.5'
p2052
aS'1.9669'
p2053
ag671
aS'437'
p2054
aS'21.2'
p2055
aS'378.25'
p2056
aS'16.9'
p2057
aa(lp2058
S'0.35233'
p2059
ag513
aS'21.89'
p2060
ag513
aS'0.624'
p2061
aS'6.454'
p2062
aS'98.4'
p2063
aS'1.8498'
p2064
ag671
aS'437'
p2065
aS'21.2'
p2066
aS'394.08'
p2067
aS'14.59'
p2068
aa(lp2069
S'0.2498'
p2070
ag513
aS'21.89'
p2071
ag513
aS'0.624'
p2072
aS'5.857'
p2073
aS'98.2'
p2074
aS'1.6686'
p2075
ag671
aS'437'
p2076
aS'21.2'
p2077
aS'392.04'
p2078
aS'21.32'
p2079
aa(lp2080
S'0.54452'
p2081
ag513
aS'21.89'
p2082
ag513
aS'0.624'
p2083
aS'6.151'
p2084
aS'97.9'
p2085
aS'1.6687'
p2086
ag671
aS'437'
p2087
aS'21.2'
p2088
aS'396.9'
p2089
aS'18.46'
p2090
aa(lp2091
S'0.2909'
p2092
ag513
aS'21.89'
p2093
ag513
aS'0.624'
p2094
aS'6.174'
p2095
aS'93.6'
p2096
aS'1.6119'
p2097
ag671
aS'437'
p2098
aS'21.2'
p2099
aS'388.08'
p2100
aS'24.16'
p2101
aa(lp2102
S'1.62864'
p2103
ag513
aS'21.89'
p2104
ag513
aS'0.624'
p2105
aS'5.019'
p2106
aS'100'
p2107
aS'1.4394'
p2108
ag671
aS'437'
p2109
aS'21.2'
p2110
aS'396.9'
p2111
aS'34.41'
p2112
aa(lp2113
S'3.32105'
p2114
ag513
aS'19.58'
p2115
ag518
aS'0.871'
p2116
aS'5.403'
p2117
aS'100'
p2118
aS'1.3216'
p2119
ag401
aS'403'
p2120
aS'14.7'
p2121
aS'396.9'
p2122
aS'26.82'
p2123
aa(lp2124
S'4.0974'
p2125
ag513
aS'19.58'
p2126
ag513
aS'0.871'
p2127
aS'5.468'
p2128
aS'100'
p2129
aS'1.4118'
p2130
ag401
aS'403'
p2131
aS'14.7'
p2132
aS'396.9'
p2133
aS'26.42'
p2134
aa(lp2135
S'2.77974'
p2136
ag513
aS'19.58'
p2137
ag513
aS'0.871'
p2138
aS'4.903'
p2139
aS'97.8'
p2140
aS'1.3459'
p2141
ag401
aS'403'
p2142
aS'14.7'
p2143
aS'396.9'
p2144
aS'29.29'
p2145
aa(lp2146
S'2.37934'
p2147
ag513
aS'19.58'
p2148
ag513
aS'0.871'
p2149
aS'6.13'
p2150
aS'100'
p2151
aS'1.4191'
p2152
ag401
aS'403'
p2153
aS'14.7'
p2154
aS'172.91'
p2155
aS'27.8'
p2156
aa(lp2157
S'2.15505'
p2158
ag513
aS'19.58'
p2159
ag513
aS'0.871'
p2160
aS'5.628'
p2161
aS'100'
p2162
aS'1.5166'
p2163
ag401
aS'403'
p2164
aS'14.7'
p2165
aS'169.27'
p2166
aS'16.65'
p2167
aa(lp2168
S'2.36862'
p2169
ag513
aS'19.58'
p2170
ag513
aS'0.871'
p2171
aS'4.926'
p2172
aS'95.7'
p2173
aS'1.4608'
p2174
ag401
aS'403'
p2175
aS'14.7'
p2176
aS'391.71'
p2177
aS'29.53'
p2178
aa(lp2179
S'2.33099'
p2180
ag513
aS'19.58'
p2181
ag513
aS'0.871'
p2182
aS'5.186'
p2183
aS'93.8'
p2184
aS'1.5296'
p2185
ag401
aS'403'
p2186
aS'14.7'
p2187
aS'356.99'
p2188
aS'28.32'
p2189
aa(lp2190
S'2.73397'
p2191
ag513
aS'19.58'
p2192
ag513
aS'0.871'
p2193
aS'5.597'
p2194
aS'94.9'
p2195
aS'1.5257'
p2196
ag401
aS'403'
p2197
aS'14.7'
p2198
aS'351.85'
p2199
aS'21.45'
p2200
aa(lp2201
S'1.6566'
p2202
ag513
aS'19.58'
p2203
ag513
aS'0.871'
p2204
aS'6.122'
p2205
aS'97.3'
p2206
aS'1.618'
p2207
ag401
aS'403'
p2208
aS'14.7'
p2209
aS'372.8'
p2210
aS'14.1'
p2211
aa(lp2212
S'1.49632'
p2213
ag513
aS'19.58'
p2214
ag513
aS'0.871'
p2215
aS'5.404'
p2216
aS'100'
p2217
aS'1.5916'
p2218
ag401
aS'403'
p2219
aS'14.7'
p2220
aS'341.6'
p2221
aS'13.28'
p2222
aa(lp2223
S'1.12658'
p2224
ag513
aS'19.58'
p2225
ag518
aS'0.871'
p2226
aS'5.012'
p2227
aS'88'
p2228
aS'1.6102'
p2229
ag401
aS'403'
p2230
aS'14.7'
p2231
aS'343.28'
p2232
aS'12.12'
p2233
aa(lp2234
S'2.14918'
p2235
ag513
aS'19.58'
p2236
ag513
aS'0.871'
p2237
aS'5.709'
p2238
aS'98.5'
p2239
aS'1.6232'
p2240
ag401
aS'403'
p2241
aS'14.7'
p2242
aS'261.95'
p2243
aS'15.79'
p2244
aa(lp2245
S'1.41385'
p2246
ag513
aS'19.58'
p2247
ag518
aS'0.871'
p2248
aS'6.129'
p2249
aS'96'
p2250
aS'1.7494'
p2251
ag401
aS'403'
p2252
aS'14.7'
p2253
aS'321.02'
p2254
aS'15.12'
p2255
aa(lp2256
S'3.53501'
p2257
ag513
aS'19.58'
p2258
ag518
aS'0.871'
p2259
aS'6.152'
p2260
aS'82.6'
p2261
aS'1.7455'
p2262
ag401
aS'403'
p2263
aS'14.7'
p2264
aS'88.01'
p2265
aS'15.02'
p2266
aa(lp2267
S'2.44668'
p2268
ag513
aS'19.58'
p2269
ag513
aS'0.871'
p2270
aS'5.272'
p2271
aS'94'
p2272
aS'1.7364'
p2273
ag401
aS'403'
p2274
aS'14.7'
p2275
aS'88.63'
p2276
aS'16.14'
p2277
aa(lp2278
S'1.22358'
p2279
ag513
aS'19.58'
p2280
ag513
aS'0.605'
p2281
aS'6.943'
p2282
aS'97.4'
p2283
aS'1.8773'
p2284
ag401
aS'403'
p2285
aS'14.7'
p2286
aS'363.43'
p2287
aS'4.59'
p2288
aa(lp2289
S'1.34284'
p2290
ag513
aS'19.58'
p2291
ag513
aS'0.605'
p2292
aS'6.066'
p2293
aS'100'
p2294
aS'1.7573'
p2295
ag401
aS'403'
p2296
aS'14.7'
p2297
aS'353.89'
p2298
aS'6.43'
p2299
aa(lp2300
S'1.42502'
p2301
ag513
aS'19.58'
p2302
ag513
aS'0.871'
p2303
aS'6.51'
p2304
aS'100'
p2305
aS'1.7659'
p2306
ag401
aS'403'
p2307
aS'14.7'
p2308
aS'364.31'
p2309
aS'7.39'
p2310
aa(lp2311
S'1.27346'
p2312
ag513
aS'19.58'
p2313
ag518
aS'0.605'
p2314
aS'6.25'
p2315
aS'92.6'
p2316
aS'1.7984'
p2317
ag401
aS'403'
p2318
aS'14.7'
p2319
aS'338.92'
p2320
aS'5.5'
p2321
aa(lp2322
S'1.46336'
p2323
ag513
aS'19.58'
p2324
ag513
aS'0.605'
p2325
aS'7.489'
p2326
aS'90.8'
p2327
aS'1.9709'
p2328
ag401
aS'403'
p2329
aS'14.7'
p2330
aS'374.43'
p2331
aS'1.73'
p2332
aa(lp2333
S'1.83377'
p2334
ag513
aS'19.58'
p2335
ag518
aS'0.605'
p2336
aS'7.802'
p2337
aS'98.2'
p2338
aS'2.0407'
p2339
ag401
aS'403'
p2340
aS'14.7'
p2341
aS'389.61'
p2342
aS'1.92'
p2343
aa(lp2344
S'1.51902'
p2345
ag513
aS'19.58'
p2346
ag518
aS'0.605'
p2347
aS'8.375'
p2348
aS'93.9'
p2349
aS'2.162'
p2350
ag401
aS'403'
p2351
aS'14.7'
p2352
aS'388.45'
p2353
aS'3.32'
p2354
aa(lp2355
S'2.24236'
p2356
ag513
aS'19.58'
p2357
ag513
aS'0.605'
p2358
aS'5.854'
p2359
aS'91.8'
p2360
aS'2.422'
p2361
ag401
aS'403'
p2362
aS'14.7'
p2363
aS'395.11'
p2364
aS'11.64'
p2365
aa(lp2366
S'2.924'
p2367
ag513
aS'19.58'
p2368
ag513
aS'0.605'
p2369
aS'6.101'
p2370
aS'93'
p2371
aS'2.2834'
p2372
ag401
aS'403'
p2373
aS'14.7'
p2374
aS'240.16'
p2375
aS'9.81'
p2376
aa(lp2377
S'2.01019'
p2378
ag513
aS'19.58'
p2379
ag513
aS'0.605'
p2380
aS'7.929'
p2381
aS'96.2'
p2382
aS'2.0459'
p2383
ag401
aS'403'
p2384
aS'14.7'
p2385
aS'369.3'
p2386
aS'3.7'
p2387
aa(lp2388
S'1.80028'
p2389
ag513
aS'19.58'
p2390
ag513
aS'0.605'
p2391
aS'5.877'
p2392
aS'79.2'
p2393
aS'2.4259'
p2394
ag401
aS'403'
p2395
aS'14.7'
p2396
aS'227.61'
p2397
aS'12.14'
p2398
aa(lp2399
S'2.3004'
p2400
ag513
aS'19.58'
p2401
ag513
aS'0.605'
p2402
aS'6.319'
p2403
aS'96.1'
p2404
aS'2.1'
p2405
ag401
aS'403'
p2406
aS'14.7'
p2407
aS'297.09'
p2408
aS'11.1'
p2409
aa(lp2410
S'2.44953'
p2411
ag513
aS'19.58'
p2412
ag513
aS'0.605'
p2413
aS'6.402'
p2414
aS'95.2'
p2415
aS'2.2625'
p2416
ag401
aS'403'
p2417
aS'14.7'
p2418
aS'330.04'
p2419
aS'11.32'
p2420
aa(lp2421
S'1.20742'
p2422
ag513
aS'19.58'
p2423
ag513
aS'0.605'
p2424
aS'5.875'
p2425
aS'94.6'
p2426
aS'2.4259'
p2427
ag401
aS'403'
p2428
aS'14.7'
p2429
aS'292.29'
p2430
aS'14.43'
p2431
aa(lp2432
S'2.3139'
p2433
ag513
aS'19.58'
p2434
ag513
aS'0.605'
p2435
aS'5.88'
p2436
aS'97.3'
p2437
aS'2.3887'
p2438
ag401
aS'403'
p2439
aS'14.7'
p2440
aS'348.13'
p2441
aS'12.03'
p2442
aa(lp2443
S'0.13914'
p2444
ag513
aS'4.05'
p2445
ag513
aS'0.51'
p2446
aS'5.572'
p2447
aS'88.5'
p2448
aS'2.5961'
p2449
ag401
aS'296'
p2450
aS'16.6'
p2451
aS'396.9'
p2452
aS'14.69'
p2453
aa(lp2454
S'0.09178'
p2455
ag513
aS'4.05'
p2456
ag513
aS'0.51'
p2457
aS'6.416'
p2458
aS'84.1'
p2459
aS'2.6463'
p2460
ag401
aS'296'
p2461
aS'16.6'
p2462
aS'395.5'
p2463
aS'9.04'
p2464
aa(lp2465
S'0.08447'
p2466
ag513
aS'4.05'
p2467
ag513
aS'0.51'
p2468
aS'5.859'
p2469
aS'68.7'
p2470
aS'2.7019'
p2471
ag401
aS'296'
p2472
aS'16.6'
p2473
aS'393.23'
p2474
aS'9.64'
p2475
aa(lp2476
S'0.06664'
p2477
ag513
aS'4.05'
p2478
ag513
aS'0.51'
p2479
aS'6.546'
p2480
aS'33.1'
p2481
aS'3.1323'
p2482
ag401
aS'296'
p2483
aS'16.6'
p2484
aS'390.96'
p2485
aS'5.33'
p2486
aa(lp2487
S'0.07022'
p2488
ag513
aS'4.05'
p2489
ag513
aS'0.51'
p2490
aS'6.02'
p2491
aS'47.2'
p2492
aS'3.5549'
p2493
ag401
aS'296'
p2494
aS'16.6'
p2495
aS'393.23'
p2496
aS'10.11'
p2497
aa(lp2498
S'0.05425'
p2499
ag513
aS'4.05'
p2500
ag513
aS'0.51'
p2501
aS'6.315'
p2502
aS'73.4'
p2503
aS'3.3175'
p2504
ag401
aS'296'
p2505
aS'16.6'
p2506
aS'395.6'
p2507
aS'6.29'
p2508
aa(lp2509
S'0.06642'
p2510
ag513
aS'4.05'
p2511
ag513
aS'0.51'
p2512
aS'6.86'
p2513
aS'74.4'
p2514
aS'2.9153'
p2515
ag401
aS'296'
p2516
aS'16.6'
p2517
aS'391.27'
p2518
aS'6.92'
p2519
aa(lp2520
S'0.0578'
p2521
ag513
aS'2.46'
p2522
ag513
aS'0.488'
p2523
aS'6.98'
p2524
aS'58.4'
p2525
aS'2.829'
p2526
ag553
aS'193'
p2527
aS'17.8'
p2528
aS'396.9'
p2529
aS'5.04'
p2530
aa(lp2531
S'0.06588'
p2532
ag513
aS'2.46'
p2533
ag513
aS'0.488'
p2534
aS'7.765'
p2535
aS'83.3'
p2536
aS'2.741'
p2537
ag553
aS'193'
p2538
aS'17.8'
p2539
aS'395.56'
p2540
aS'7.56'
p2541
aa(lp2542
S'0.06888'
p2543
ag513
aS'2.46'
p2544
ag513
aS'0.488'
p2545
aS'6.144'
p2546
aS'62.2'
p2547
aS'2.5979'
p2548
ag553
aS'193'
p2549
aS'17.8'
p2550
aS'396.9'
p2551
aS'9.45'
p2552
aa(lp2553
S'0.09103'
p2554
ag513
aS'2.46'
p2555
ag513
aS'0.488'
p2556
aS'7.155'
p2557
aS'92.2'
p2558
aS'2.7006'
p2559
ag553
aS'193'
p2560
aS'17.8'
p2561
aS'394.12'
p2562
aS'4.82'
p2563
aa(lp2564
S'0.10008'
p2565
ag513
aS'2.46'
p2566
ag513
aS'0.488'
p2567
aS'6.563'
p2568
aS'95.6'
p2569
aS'2.847'
p2570
ag553
aS'193'
p2571
aS'17.8'
p2572
aS'396.9'
p2573
aS'5.68'
p2574
aa(lp2575
S'0.08308'
p2576
ag513
aS'2.46'
p2577
ag513
aS'0.488'
p2578
aS'5.604'
p2579
aS'89.8'
p2580
aS'2.9879'
p2581
ag553
aS'193'
p2582
aS'17.8'
p2583
aS'391'
p2584
aS'13.98'
p2585
aa(lp2586
S'0.06047'
p2587
ag513
aS'2.46'
p2588
ag513
aS'0.488'
p2589
aS'6.153'
p2590
aS'68.8'
p2591
aS'3.2797'
p2592
ag553
aS'193'
p2593
aS'17.8'
p2594
aS'387.11'
p2595
aS'13.15'
p2596
aa(lp2597
S'0.05602'
p2598
ag513
aS'2.46'
p2599
ag513
aS'0.488'
p2600
aS'7.831'
p2601
aS'53.6'
p2602
aS'3.1992'
p2603
ag553
aS'193'
p2604
aS'17.8'
p2605
aS'392.63'
p2606
aS'4.45'
p2607
aa(lp2608
S'0.07875'
p2609
aS'45'
p2610
aS'3.44'
p2611
ag513
aS'0.437'
p2612
aS'6.782'
p2613
aS'41.1'
p2614
aS'3.7886'
p2615
ag401
aS'398'
p2616
aS'15.2'
p2617
aS'393.87'
p2618
aS'6.68'
p2619
aa(lp2620
S'0.12579'
p2621
aS'45'
p2622
aS'3.44'
p2623
ag513
aS'0.437'
p2624
aS'6.556'
p2625
aS'29.1'
p2626
aS'4.5667'
p2627
ag401
aS'398'
p2628
aS'15.2'
p2629
aS'382.84'
p2630
aS'4.56'
p2631
aa(lp2632
S'0.0837'
p2633
aS'45'
p2634
aS'3.44'
p2635
ag513
aS'0.437'
p2636
aS'7.185'
p2637
aS'38.9'
p2638
aS'4.5667'
p2639
ag401
aS'398'
p2640
aS'15.2'
p2641
aS'396.9'
p2642
aS'5.39'
p2643
aa(lp2644
S'0.09068'
p2645
aS'45'
p2646
aS'3.44'
p2647
ag513
aS'0.437'
p2648
aS'6.951'
p2649
aS'21.5'
p2650
aS'6.4798'
p2651
ag401
aS'398'
p2652
aS'15.2'
p2653
aS'377.68'
p2654
aS'5.1'
p2655
aa(lp2656
S'0.06911'
p2657
aS'45'
p2658
aS'3.44'
p2659
ag513
aS'0.437'
p2660
aS'6.739'
p2661
aS'30.8'
p2662
aS'6.4798'
p2663
ag401
aS'398'
p2664
aS'15.2'
p2665
aS'389.71'
p2666
aS'4.69'
p2667
aa(lp2668
S'0.08664'
p2669
aS'45'
p2670
aS'3.44'
p2671
ag513
aS'0.437'
p2672
aS'7.178'
p2673
aS'26.3'
p2674
aS'6.4798'
p2675
ag401
aS'398'
p2676
aS'15.2'
p2677
aS'390.49'
p2678
aS'2.87'
p2679
aa(lp2680
S'0.02187'
p2681
aS'60'
p2682
aS'2.93'
p2683
ag513
aS'0.401'
p2684
aS'6.8'
p2685
aS'9.9'
p2686
aS'6.2196'
p2687
ag518
aS'265'
p2688
aS'15.6'
p2689
aS'393.37'
p2690
aS'5.03'
p2691
aa(lp2692
S'0.01439'
p2693
aS'60'
p2694
aS'2.93'
p2695
ag513
aS'0.401'
p2696
aS'6.604'
p2697
aS'18.8'
p2698
aS'6.2196'
p2699
ag518
aS'265'
p2700
aS'15.6'
p2701
aS'376.7'
p2702
aS'4.38'
p2703
aa(lp2704
S'0.01381'
p2705
aS'80'
p2706
aS'0.46'
p2707
ag513
aS'0.422'
p2708
aS'7.875'
p2709
aS'32'
p2710
aS'5.6484'
p2711
ag671
aS'255'
p2712
aS'14.4'
p2713
aS'394.23'
p2714
aS'2.97'
p2715
aa(lp2716
S'0.04011'
p2717
aS'80'
p2718
aS'1.52'
p2719
ag513
aS'0.404'
p2720
aS'7.287'
p2721
aS'34.1'
p2722
aS'7.309'
p2723
ag530
aS'329'
p2724
aS'12.6'
p2725
aS'396.9'
p2726
aS'4.08'
p2727
aa(lp2728
S'0.04666'
p2729
aS'80'
p2730
aS'1.52'
p2731
ag513
aS'0.404'
p2732
aS'7.107'
p2733
aS'36.6'
p2734
aS'7.309'
p2735
ag530
aS'329'
p2736
aS'12.6'
p2737
aS'354.31'
p2738
aS'8.61'
p2739
aa(lp2740
S'0.03768'
p2741
aS'80'
p2742
aS'1.52'
p2743
ag513
aS'0.404'
p2744
aS'7.274'
p2745
aS'38.3'
p2746
aS'7.309'
p2747
ag530
aS'329'
p2748
aS'12.6'
p2749
aS'392.2'
p2750
aS'6.62'
p2751
aa(lp2752
S'0.0315'
p2753
aS'95'
p2754
aS'1.47'
p2755
ag513
aS'0.403'
p2756
aS'6.975'
p2757
aS'15.3'
p2758
aS'7.6534'
p2759
ag553
aS'402'
p2760
aS'17'
p2761
aS'396.9'
p2762
aS'4.56'
p2763
aa(lp2764
S'0.01778'
p2765
aS'95'
p2766
aS'1.47'
p2767
ag513
aS'0.403'
p2768
aS'7.135'
p2769
aS'13.9'
p2770
aS'7.6534'
p2771
ag553
aS'402'
p2772
aS'17'
p2773
aS'384.3'
p2774
aS'4.45'
p2775
aa(lp2776
S'0.03445'
p2777
aS'82.5'
p2778
aS'2.03'
p2779
ag513
aS'0.415'
p2780
aS'6.162'
p2781
aS'38.4'
p2782
aS'6.27'
p2783
ag530
aS'348'
p2784
aS'14.7'
p2785
aS'393.77'
p2786
aS'7.43'
p2787
aa(lp2788
S'0.02177'
p2789
aS'82.5'
p2790
aS'2.03'
p2791
ag513
aS'0.415'
p2792
aS'7.61'
p2793
aS'15.7'
p2794
aS'6.27'
p2795
ag530
aS'348'
p2796
aS'14.7'
p2797
aS'395.38'
p2798
aS'3.11'
p2799
aa(lp2800
S'0.0351'
p2801
aS'95'
p2802
aS'2.68'
p2803
ag513
aS'0.4161'
p2804
aS'7.853'
p2805
aS'33.2'
p2806
aS'5.118'
p2807
ag671
aS'224'
p2808
aS'14.7'
p2809
aS'392.78'
p2810
aS'3.81'
p2811
aa(lp2812
S'0.02009'
p2813
aS'95'
p2814
aS'2.68'
p2815
ag513
aS'0.4161'
p2816
aS'8.034'
p2817
aS'31.9'
p2818
aS'5.118'
p2819
ag671
aS'224'
p2820
aS'14.7'
p2821
aS'390.55'
p2822
aS'2.88'
p2823
aa(lp2824
S'0.13642'
p2825
ag513
aS'10.59'
p2826
ag513
aS'0.489'
p2827
aS'5.891'
p2828
aS'22.3'
p2829
aS'3.9454'
p2830
ag671
aS'277'
p2831
aS'18.6'
p2832
aS'396.9'
p2833
aS'10.87'
p2834
aa(lp2835
S'0.22969'
p2836
ag513
aS'10.59'
p2837
ag513
aS'0.489'
p2838
aS'6.326'
p2839
aS'52.5'
p2840
aS'4.3549'
p2841
ag671
aS'277'
p2842
aS'18.6'
p2843
aS'394.87'
p2844
aS'10.97'
p2845
aa(lp2846
S'0.25199'
p2847
ag513
aS'10.59'
p2848
ag513
aS'0.489'
p2849
aS'5.783'
p2850
aS'72.7'
p2851
aS'4.3549'
p2852
ag671
aS'277'
p2853
aS'18.6'
p2854
aS'389.43'
p2855
aS'18.06'
p2856
aa(lp2857
S'0.13587'
p2858
ag513
aS'10.59'
p2859
ag518
aS'0.489'
p2860
aS'6.064'
p2861
aS'59.1'
p2862
aS'4.2392'
p2863
ag671
aS'277'
p2864
aS'18.6'
p2865
aS'381.32'
p2866
aS'14.66'
p2867
aa(lp2868
S'0.43571'
p2869
ag513
aS'10.59'
p2870
ag518
aS'0.489'
p2871
aS'5.344'
p2872
aS'100'
p2873
aS'3.875'
p2874
ag671
aS'277'
p2875
aS'18.6'
p2876
aS'396.9'
p2877
aS'23.09'
p2878
aa(lp2879
S'0.17446'
p2880
ag513
aS'10.59'
p2881
ag518
aS'0.489'
p2882
aS'5.96'
p2883
aS'92.1'
p2884
aS'3.8771'
p2885
ag671
aS'277'
p2886
aS'18.6'
p2887
aS'393.25'
p2888
aS'17.27'
p2889
aa(lp2890
S'0.37578'
p2891
ag513
aS'10.59'
p2892
ag518
aS'0.489'
p2893
aS'5.404'
p2894
aS'88.6'
p2895
aS'3.665'
p2896
ag671
aS'277'
p2897
aS'18.6'
p2898
aS'395.24'
p2899
aS'23.98'
p2900
aa(lp2901
S'0.21719'
p2902
ag513
aS'10.59'
p2903
ag518
aS'0.489'
p2904
aS'5.807'
p2905
aS'53.8'
p2906
aS'3.6526'
p2907
ag671
aS'277'
p2908
aS'18.6'
p2909
aS'390.94'
p2910
aS'16.03'
p2911
aa(lp2912
S'0.14052'
p2913
ag513
aS'10.59'
p2914
ag513
aS'0.489'
p2915
aS'6.375'
p2916
aS'32.3'
p2917
aS'3.9454'
p2918
ag671
aS'277'
p2919
aS'18.6'
p2920
aS'385.81'
p2921
aS'9.38'
p2922
aa(lp2923
S'0.28955'
p2924
ag513
aS'10.59'
p2925
ag513
aS'0.489'
p2926
aS'5.412'
p2927
aS'9.8'
p2928
aS'3.5875'
p2929
ag671
aS'277'
p2930
aS'18.6'
p2931
aS'348.93'
p2932
aS'29.55'
p2933
aa(lp2934
S'0.19802'
p2935
ag513
aS'10.59'
p2936
ag513
aS'0.489'
p2937
aS'6.182'
p2938
aS'42.4'
p2939
aS'3.9454'
p2940
ag671
aS'277'
p2941
aS'18.6'
p2942
aS'393.63'
p2943
aS'9.47'
p2944
aa(lp2945
S'0.0456'
p2946
ag513
aS'13.89'
p2947
ag518
aS'0.55'
p2948
aS'5.888'
p2949
aS'56'
p2950
aS'3.1121'
p2951
ag401
aS'276'
p2952
aS'16.4'
p2953
aS'392.8'
p2954
aS'13.51'
p2955
aa(lp2956
S'0.07013'
p2957
ag513
aS'13.89'
p2958
ag513
aS'0.55'
p2959
aS'6.642'
p2960
aS'85.1'
p2961
aS'3.4211'
p2962
ag401
aS'276'
p2963
aS'16.4'
p2964
aS'392.78'
p2965
aS'9.69'
p2966
aa(lp2967
S'0.11069'
p2968
ag513
aS'13.89'
p2969
ag518
aS'0.55'
p2970
aS'5.951'
p2971
aS'93.8'
p2972
aS'2.8893'
p2973
ag401
aS'276'
p2974
aS'16.4'
p2975
aS'396.9'
p2976
aS'17.92'
p2977
aa(lp2978
S'0.11425'
p2979
ag513
aS'13.89'
p2980
ag518
aS'0.55'
p2981
aS'6.373'
p2982
aS'92.4'
p2983
aS'3.3633'
p2984
ag401
aS'276'
p2985
aS'16.4'
p2986
aS'393.74'
p2987
aS'10.5'
p2988
aa(lp2989
S'0.35809'
p2990
ag513
aS'6.2'
p2991
ag518
aS'0.507'
p2992
aS'6.951'
p2993
aS'88.5'
p2994
aS'2.8617'
p2995
ag1177
aS'307'
p2996
aS'17.4'
p2997
aS'391.7'
p2998
aS'9.71'
p2999
aa(lp3000
S'0.40771'
p3001
ag513
aS'6.2'
p3002
ag518
aS'0.507'
p3003
aS'6.164'
p3004
aS'91.3'
p3005
aS'3.048'
p3006
ag1177
aS'307'
p3007
aS'17.4'
p3008
aS'395.24'
p3009
aS'21.46'
p3010
aa(lp3011
S'0.62356'
p3012
ag513
aS'6.2'
p3013
ag518
aS'0.507'
p3014
aS'6.879'
p3015
aS'77.7'
p3016
aS'3.2721'
p3017
ag1177
aS'307'
p3018
aS'17.4'
p3019
aS'390.39'
p3020
aS'9.93'
p3021
aa(lp3022
S'0.6147'
p3023
ag513
aS'6.2'
p3024
ag513
aS'0.507'
p3025
aS'6.618'
p3026
aS'80.8'
p3027
aS'3.2721'
p3028
ag1177
aS'307'
p3029
aS'17.4'
p3030
aS'396.9'
p3031
aS'7.6'
p3032
aa(lp3033
S'0.31533'
p3034
ag513
aS'6.2'
p3035
ag513
aS'0.504'
p3036
aS'8.266'
p3037
aS'78.3'
p3038
aS'2.8944'
p3039
ag1177
aS'307'
p3040
aS'17.4'
p3041
aS'385.05'
p3042
aS'4.14'
p3043
aa(lp3044
S'0.52693'
p3045
ag513
aS'6.2'
p3046
ag513
aS'0.504'
p3047
aS'8.725'
p3048
aS'83'
p3049
aS'2.8944'
p3050
ag1177
aS'307'
p3051
aS'17.4'
p3052
aS'382'
p3053
aS'4.63'
p3054
aa(lp3055
S'0.38214'
p3056
ag513
aS'6.2'
p3057
ag513
aS'0.504'
p3058
aS'8.04'
p3059
aS'86.5'
p3060
aS'3.2157'
p3061
ag1177
aS'307'
p3062
aS'17.4'
p3063
aS'387.38'
p3064
aS'3.13'
p3065
aa(lp3066
S'0.41238'
p3067
ag513
aS'6.2'
p3068
ag513
aS'0.504'
p3069
aS'7.163'
p3070
aS'79.9'
p3071
aS'3.2157'
p3072
ag1177
aS'307'
p3073
aS'17.4'
p3074
aS'372.08'
p3075
aS'6.36'
p3076
aa(lp3077
S'0.29819'
p3078
ag513
aS'6.2'
p3079
ag513
aS'0.504'
p3080
aS'7.686'
p3081
aS'17'
p3082
aS'3.3751'
p3083
ag1177
aS'307'
p3084
aS'17.4'
p3085
aS'377.51'
p3086
aS'3.92'
p3087
aa(lp3088
S'0.44178'
p3089
ag513
aS'6.2'
p3090
ag513
aS'0.504'
p3091
aS'6.552'
p3092
aS'21.4'
p3093
aS'3.3751'
p3094
ag1177
aS'307'
p3095
aS'17.4'
p3096
aS'380.34'
p3097
aS'3.76'
p3098
aa(lp3099
S'0.537'
p3100
ag513
aS'6.2'
p3101
ag513
aS'0.504'
p3102
aS'5.981'
p3103
aS'68.1'
p3104
aS'3.6715'
p3105
ag1177
aS'307'
p3106
aS'17.4'
p3107
aS'378.35'
p3108
aS'11.65'
p3109
aa(lp3110
S'0.46296'
p3111
ag513
aS'6.2'
p3112
ag513
aS'0.504'
p3113
aS'7.412'
p3114
aS'76.9'
p3115
aS'3.6715'
p3116
ag1177
aS'307'
p3117
aS'17.4'
p3118
aS'376.14'
p3119
aS'5.25'
p3120
aa(lp3121
S'0.57529'
p3122
ag513
aS'6.2'
p3123
ag513
aS'0.507'
p3124
aS'8.337'
p3125
aS'73.3'
p3126
aS'3.8384'
p3127
ag1177
aS'307'
p3128
aS'17.4'
p3129
aS'385.91'
p3130
aS'2.47'
p3131
aa(lp3132
S'0.33147'
p3133
ag513
aS'6.2'
p3134
ag513
aS'0.507'
p3135
aS'8.247'
p3136
aS'70.4'
p3137
aS'3.6519'
p3138
ag1177
aS'307'
p3139
aS'17.4'
p3140
aS'378.95'
p3141
aS'3.95'
p3142
aa(lp3143
S'0.44791'
p3144
ag513
aS'6.2'
p3145
ag518
aS'0.507'
p3146
aS'6.726'
p3147
aS'66.5'
p3148
aS'3.6519'
p3149
ag1177
aS'307'
p3150
aS'17.4'
p3151
aS'360.2'
p3152
aS'8.05'
p3153
aa(lp3154
S'0.33045'
p3155
ag513
aS'6.2'
p3156
ag513
aS'0.507'
p3157
aS'6.086'
p3158
aS'61.5'
p3159
aS'3.6519'
p3160
ag1177
aS'307'
p3161
aS'17.4'
p3162
aS'376.75'
p3163
aS'10.88'
p3164
aa(lp3165
S'0.52058'
p3166
ag513
aS'6.2'
p3167
ag518
aS'0.507'
p3168
aS'6.631'
p3169
aS'76.5'
p3170
aS'4.148'
p3171
ag1177
aS'307'
p3172
aS'17.4'
p3173
aS'388.45'
p3174
aS'9.54'
p3175
aa(lp3176
S'0.51183'
p3177
ag513
aS'6.2'
p3178
ag513
aS'0.507'
p3179
aS'7.358'
p3180
aS'71.6'
p3181
aS'4.148'
p3182
ag1177
aS'307'
p3183
aS'17.4'
p3184
aS'390.07'
p3185
aS'4.73'
p3186
aa(lp3187
S'0.08244'
p3188
aS'30'
p3189
aS'4.93'
p3190
ag513
aS'0.428'
p3191
aS'6.481'
p3192
aS'18.5'
p3193
aS'6.1899'
p3194
ag1363
aS'300'
p3195
aS'16.6'
p3196
aS'379.41'
p3197
aS'6.36'
p3198
aa(lp3199
S'0.09252'
p3200
aS'30'
p3201
aS'4.93'
p3202
ag513
aS'0.428'
p3203
aS'6.606'
p3204
aS'42.2'
p3205
aS'6.1899'
p3206
ag1363
aS'300'
p3207
aS'16.6'
p3208
aS'383.78'
p3209
aS'7.37'
p3210
aa(lp3211
S'0.11329'
p3212
aS'30'
p3213
aS'4.93'
p3214
ag513
aS'0.428'
p3215
aS'6.897'
p3216
aS'54.3'
p3217
aS'6.3361'
p3218
ag1363
aS'300'
p3219
aS'16.6'
p3220
aS'391.25'
p3221
aS'11.38'
p3222
aa(lp3223
S'0.10612'
p3224
aS'30'
p3225
aS'4.93'
p3226
ag513
aS'0.428'
p3227
aS'6.095'
p3228
aS'65.1'
p3229
aS'6.3361'
p3230
ag1363
aS'300'
p3231
aS'16.6'
p3232
aS'394.62'
p3233
aS'12.4'
p3234
aa(lp3235
S'0.1029'
p3236
aS'30'
p3237
aS'4.93'
p3238
ag513
aS'0.428'
p3239
aS'6.358'
p3240
aS'52.9'
p3241
aS'7.0355'
p3242
ag1363
aS'300'
p3243
aS'16.6'
p3244
aS'372.75'
p3245
aS'11.22'
p3246
aa(lp3247
S'0.12757'
p3248
aS'30'
p3249
aS'4.93'
p3250
ag513
aS'0.428'
p3251
aS'6.393'
p3252
aS'7.8'
p3253
aS'7.0355'
p3254
ag1363
aS'300'
p3255
aS'16.6'
p3256
aS'374.71'
p3257
aS'5.19'
p3258
aa(lp3259
S'0.20608'
p3260
aS'22'
p3261
aS'5.86'
p3262
ag513
aS'0.431'
p3263
aS'5.593'
p3264
aS'76.5'
p3265
aS'7.9549'
p3266
ag416
aS'330'
p3267
aS'19.1'
p3268
aS'372.49'
p3269
aS'12.5'
p3270
aa(lp3271
S'0.19133'
p3272
aS'22'
p3273
aS'5.86'
p3274
ag513
aS'0.431'
p3275
aS'5.605'
p3276
aS'70.2'
p3277
aS'7.9549'
p3278
ag416
aS'330'
p3279
aS'19.1'
p3280
aS'389.13'
p3281
aS'18.46'
p3282
aa(lp3283
S'0.33983'
p3284
aS'22'
p3285
aS'5.86'
p3286
ag513
aS'0.431'
p3287
aS'6.108'
p3288
aS'34.9'
p3289
aS'8.0555'
p3290
ag416
aS'330'
p3291
aS'19.1'
p3292
aS'390.18'
p3293
aS'9.16'
p3294
aa(lp3295
S'0.19657'
p3296
aS'22'
p3297
aS'5.86'
p3298
ag513
aS'0.431'
p3299
aS'6.226'
p3300
aS'79.2'
p3301
aS'8.0555'
p3302
ag416
aS'330'
p3303
aS'19.1'
p3304
aS'376.14'
p3305
aS'10.15'
p3306
aa(lp3307
S'0.16439'
p3308
aS'22'
p3309
aS'5.86'
p3310
ag513
aS'0.431'
p3311
aS'6.433'
p3312
aS'49.1'
p3313
aS'7.8265'
p3314
ag416
aS'330'
p3315
aS'19.1'
p3316
aS'374.71'
p3317
aS'9.52'
p3318
aa(lp3319
S'0.19073'
p3320
aS'22'
p3321
aS'5.86'
p3322
ag513
aS'0.431'
p3323
aS'6.718'
p3324
aS'17.5'
p3325
aS'7.8265'
p3326
ag416
aS'330'
p3327
aS'19.1'
p3328
aS'393.74'
p3329
aS'6.56'
p3330
aa(lp3331
S'0.1403'
p3332
aS'22'
p3333
aS'5.86'
p3334
ag513
aS'0.431'
p3335
aS'6.487'
p3336
aS'13'
p3337
aS'7.3967'
p3338
ag416
aS'330'
p3339
aS'19.1'
p3340
aS'396.28'
p3341
aS'5.9'
p3342
aa(lp3343
S'0.21409'
p3344
aS'22'
p3345
aS'5.86'
p3346
ag513
aS'0.431'
p3347
aS'6.438'
p3348
aS'8.9'
p3349
aS'7.3967'
p3350
ag416
aS'330'
p3351
aS'19.1'
p3352
aS'377.07'
p3353
aS'3.59'
p3354
aa(lp3355
S'0.08221'
p3356
aS'22'
p3357
aS'5.86'
p3358
ag513
aS'0.431'
p3359
aS'6.957'
p3360
aS'6.8'
p3361
aS'8.9067'
p3362
ag416
aS'330'
p3363
aS'19.1'
p3364
aS'386.09'
p3365
aS'3.53'
p3366
aa(lp3367
S'0.36894'
p3368
aS'22'
p3369
aS'5.86'
p3370
ag513
aS'0.431'
p3371
aS'8.259'
p3372
aS'8.4'
p3373
aS'8.9067'
p3374
ag416
aS'330'
p3375
aS'19.1'
p3376
aS'396.9'
p3377
aS'3.54'
p3378
aa(lp3379
S'0.04819'
p3380
aS'80'
p3381
aS'3.64'
p3382
ag513
aS'0.392'
p3383
aS'6.108'
p3384
aS'32'
p3385
aS'9.2203'
p3386
ag518
aS'315'
p3387
aS'16.4'
p3388
aS'392.89'
p3389
aS'6.57'
p3390
aa(lp3391
S'0.03548'
p3392
aS'80'
p3393
aS'3.64'
p3394
ag513
aS'0.392'
p3395
aS'5.876'
p3396
aS'19.1'
p3397
aS'9.2203'
p3398
ag518
aS'315'
p3399
aS'16.4'
p3400
aS'395.18'
p3401
aS'9.25'
p3402
aa(lp3403
S'0.01538'
p3404
aS'90'
p3405
aS'3.75'
p3406
ag513
aS'0.394'
p3407
aS'7.454'
p3408
aS'34.2'
p3409
aS'6.3361'
p3410
ag553
aS'244'
p3411
aS'15.9'
p3412
aS'386.34'
p3413
aS'3.11'
p3414
aa(lp3415
S'0.61154'
p3416
aS'20'
p3417
aS'3.97'
p3418
ag513
aS'0.647'
p3419
aS'8.704'
p3420
aS'86.9'
p3421
aS'1.801'
p3422
ag401
aS'264'
p3423
aS'13'
p3424
aS'389.7'
p3425
aS'5.12'
p3426
aa(lp3427
S'0.66351'
p3428
aS'20'
p3429
aS'3.97'
p3430
ag513
aS'0.647'
p3431
aS'7.333'
p3432
aS'100'
p3433
aS'1.8946'
p3434
ag401
aS'264'
p3435
aS'13'
p3436
aS'383.29'
p3437
aS'7.79'
p3438
aa(lp3439
S'0.65665'
p3440
aS'20'
p3441
aS'3.97'
p3442
ag513
aS'0.647'
p3443
aS'6.842'
p3444
aS'100'
p3445
aS'2.0107'
p3446
ag401
aS'264'
p3447
aS'13'
p3448
aS'391.93'
p3449
aS'6.9'
p3450
aa(lp3451
S'0.54011'
p3452
aS'20'
p3453
aS'3.97'
p3454
ag513
aS'0.647'
p3455
aS'7.203'
p3456
aS'81.8'
p3457
aS'2.1121'
p3458
ag401
aS'264'
p3459
aS'13'
p3460
aS'392.8'
p3461
aS'9.59'
p3462
aa(lp3463
S'0.53412'
p3464
aS'20'
p3465
aS'3.97'
p3466
ag513
aS'0.647'
p3467
aS'7.52'
p3468
aS'89.4'
p3469
aS'2.1398'
p3470
ag401
aS'264'
p3471
aS'13'
p3472
aS'388.37'
p3473
aS'7.26'
p3474
aa(lp3475
S'0.52014'
p3476
aS'20'
p3477
aS'3.97'
p3478
ag513
aS'0.647'
p3479
aS'8.398'
p3480
aS'91.5'
p3481
aS'2.2885'
p3482
ag401
aS'264'
p3483
aS'13'
p3484
aS'386.86'
p3485
aS'5.91'
p3486
aa(lp3487
S'0.82526'
p3488
aS'20'
p3489
aS'3.97'
p3490
ag513
aS'0.647'
p3491
aS'7.327'
p3492
aS'94.5'
p3493
aS'2.0788'
p3494
ag401
aS'264'
p3495
aS'13'
p3496
aS'393.42'
p3497
aS'11.25'
p3498
aa(lp3499
S'0.55007'
p3500
aS'20'
p3501
aS'3.97'
p3502
ag513
aS'0.647'
p3503
aS'7.206'
p3504
aS'91.6'
p3505
aS'1.9301'
p3506
ag401
aS'264'
p3507
aS'13'
p3508
aS'387.89'
p3509
aS'8.1'
p3510
aa(lp3511
S'0.76162'
p3512
aS'20'
p3513
aS'3.97'
p3514
ag513
aS'0.647'
p3515
aS'5.56'
p3516
aS'62.8'
p3517
aS'1.9865'
p3518
ag401
aS'264'
p3519
aS'13'
p3520
aS'392.4'
p3521
aS'10.45'
p3522
aa(lp3523
S'0.7857'
p3524
aS'20'
p3525
aS'3.97'
p3526
ag513
aS'0.647'
p3527
aS'7.014'
p3528
aS'84.6'
p3529
aS'2.1329'
p3530
ag401
aS'264'
p3531
aS'13'
p3532
aS'384.07'
p3533
aS'14.79'
p3534
aa(lp3535
S'0.57834'
p3536
aS'20'
p3537
aS'3.97'
p3538
ag513
aS'0.575'
p3539
aS'8.297'
p3540
aS'67'
p3541
aS'2.4216'
p3542
ag401
aS'264'
p3543
aS'13'
p3544
aS'384.54'
p3545
aS'7.44'
p3546
aa(lp3547
S'0.5405'
p3548
aS'20'
p3549
aS'3.97'
p3550
ag513
aS'0.575'
p3551
aS'7.47'
p3552
aS'52.6'
p3553
aS'2.872'
p3554
ag401
aS'264'
p3555
aS'13'
p3556
aS'390.3'
p3557
aS'3.16'
p3558
aa(lp3559
S'0.09065'
p3560
aS'20'
p3561
aS'6.96'
p3562
ag518
aS'0.464'
p3563
aS'5.92'
p3564
aS'61.5'
p3565
aS'3.9175'
p3566
ag553
aS'223'
p3567
aS'18.6'
p3568
aS'391.34'
p3569
aS'13.65'
p3570
aa(lp3571
S'0.29916'
p3572
aS'20'
p3573
aS'6.96'
p3574
ag513
aS'0.464'
p3575
aS'5.856'
p3576
aS'42.1'
p3577
aS'4.429'
p3578
ag553
aS'223'
p3579
aS'18.6'
p3580
aS'388.65'
p3581
aS'13'
p3582
aa(lp3583
S'0.16211'
p3584
aS'20'
p3585
aS'6.96'
p3586
ag513
aS'0.464'
p3587
aS'6.24'
p3588
aS'16.3'
p3589
aS'4.429'
p3590
ag553
aS'223'
p3591
aS'18.6'
p3592
aS'396.9'
p3593
aS'6.59'
p3594
aa(lp3595
S'0.1146'
p3596
aS'20'
p3597
aS'6.96'
p3598
ag513
aS'0.464'
p3599
aS'6.538'
p3600
aS'58.7'
p3601
aS'3.9175'
p3602
ag553
aS'223'
p3603
aS'18.6'
p3604
aS'394.96'
p3605
aS'7.73'
p3606
aa(lp3607
S'0.22188'
p3608
aS'20'
p3609
aS'6.96'
p3610
ag518
aS'0.464'
p3611
aS'7.691'
p3612
aS'51.8'
p3613
aS'4.3665'
p3614
ag553
aS'223'
p3615
aS'18.6'
p3616
aS'390.77'
p3617
aS'6.58'
p3618
aa(lp3619
S'0.05644'
p3620
aS'40'
p3621
aS'6.41'
p3622
ag518
aS'0.447'
p3623
aS'6.758'
p3624
aS'32.9'
p3625
aS'4.0776'
p3626
ag671
aS'254'
p3627
aS'17.6'
p3628
aS'396.9'
p3629
aS'3.53'
p3630
aa(lp3631
S'0.09604'
p3632
aS'40'
p3633
aS'6.41'
p3634
ag513
aS'0.447'
p3635
aS'6.854'
p3636
aS'42.8'
p3637
aS'4.2673'
p3638
ag671
aS'254'
p3639
aS'17.6'
p3640
aS'396.9'
p3641
aS'2.98'
p3642
aa(lp3643
S'0.10469'
p3644
aS'40'
p3645
aS'6.41'
p3646
ag518
aS'0.447'
p3647
aS'7.267'
p3648
aS'49'
p3649
aS'4.7872'
p3650
ag671
aS'254'
p3651
aS'17.6'
p3652
aS'389.25'
p3653
aS'6.05'
p3654
aa(lp3655
S'0.06127'
p3656
aS'40'
p3657
aS'6.41'
p3658
ag518
aS'0.447'
p3659
aS'6.826'
p3660
aS'27.6'
p3661
aS'4.8628'
p3662
ag671
aS'254'
p3663
aS'17.6'
p3664
aS'393.45'
p3665
aS'4.16'
p3666
aa(lp3667
S'0.07978'
p3668
aS'40'
p3669
aS'6.41'
p3670
ag513
aS'0.447'
p3671
aS'6.482'
p3672
aS'32.1'
p3673
aS'4.1403'
p3674
ag671
aS'254'
p3675
aS'17.6'
p3676
aS'396.9'
p3677
aS'7.19'
p3678
aa(lp3679
S'0.21038'
p3680
aS'20'
p3681
aS'3.33'
p3682
ag513
aS'0.4429'
p3683
aS'6.812'
p3684
aS'32.2'
p3685
aS'4.1007'
p3686
ag401
aS'216'
p3687
aS'14.9'
p3688
aS'396.9'
p3689
aS'4.85'
p3690
aa(lp3691
S'0.03578'
p3692
aS'20'
p3693
aS'3.33'
p3694
ag513
aS'0.4429'
p3695
aS'7.82'
p3696
aS'64.5'
p3697
aS'4.6947'
p3698
ag401
aS'216'
p3699
aS'14.9'
p3700
aS'387.31'
p3701
aS'3.76'
p3702
aa(lp3703
S'0.03705'
p3704
aS'20'
p3705
aS'3.33'
p3706
ag513
aS'0.4429'
p3707
aS'6.968'
p3708
aS'37.2'
p3709
aS'5.2447'
p3710
ag401
aS'216'
p3711
aS'14.9'
p3712
aS'392.23'
p3713
aS'4.59'
p3714
aa(lp3715
S'0.06129'
p3716
aS'20'
p3717
aS'3.33'
p3718
ag518
aS'0.4429'
p3719
aS'7.645'
p3720
aS'49.7'
p3721
aS'5.2119'
p3722
ag401
aS'216'
p3723
aS'14.9'
p3724
aS'377.07'
p3725
aS'3.01'
p3726
aa(lp3727
S'0.01501'
p3728
aS'90'
p3729
aS'1.21'
p3730
ag518
aS'0.401'
p3731
aS'7.923'
p3732
aS'24.8'
p3733
aS'5.885'
p3734
ag518
aS'198'
p3735
aS'13.6'
p3736
aS'395.52'
p3737
aS'3.16'
p3738
aa(lp3739
S'0.00906'
p3740
aS'90'
p3741
aS'2.97'
p3742
ag513
aS'0.4'
p3743
aS'7.088'
p3744
aS'20.8'
p3745
aS'7.3073'
p3746
ag518
aS'285'
p3747
aS'15.3'
p3748
aS'394.72'
p3749
aS'7.85'
p3750
aa(lp3751
S'0.01096'
p3752
aS'55'
p3753
aS'2.25'
p3754
ag513
aS'0.389'
p3755
aS'6.453'
p3756
aS'31.9'
p3757
aS'7.3073'
p3758
ag518
aS'300'
p3759
aS'15.3'
p3760
aS'394.72'
p3761
aS'8.23'
p3762
aa(lp3763
S'0.01965'
p3764
aS'80'
p3765
aS'1.76'
p3766
ag513
aS'0.385'
p3767
aS'6.23'
p3768
aS'31.5'
p3769
aS'9.0892'
p3770
ag518
aS'241'
p3771
aS'18.2'
p3772
aS'341.6'
p3773
aS'12.93'
p3774
aa(lp3775
S'0.03871'
p3776
aS'52.5'
p3777
aS'5.32'
p3778
ag513
aS'0.405'
p3779
aS'6.209'
p3780
aS'31.3'
p3781
aS'7.3172'
p3782
ag1363
aS'293'
p3783
aS'16.6'
p3784
aS'396.9'
p3785
aS'7.14'
p3786
aa(lp3787
S'0.0459'
p3788
aS'52.5'
p3789
aS'5.32'
p3790
ag513
aS'0.405'
p3791
aS'6.315'
p3792
aS'45.6'
p3793
aS'7.3172'
p3794
ag1363
aS'293'
p3795
aS'16.6'
p3796
aS'396.9'
p3797
aS'7.6'
p3798
aa(lp3799
S'0.04297'
p3800
aS'52.5'
p3801
aS'5.32'
p3802
ag513
aS'0.405'
p3803
aS'6.565'
p3804
aS'22.9'
p3805
aS'7.3172'
p3806
ag1363
aS'293'
p3807
aS'16.6'
p3808
aS'371.72'
p3809
aS'9.51'
p3810
aa(lp3811
S'0.03502'
p3812
aS'80'
p3813
aS'4.95'
p3814
ag513
aS'0.411'
p3815
aS'6.861'
p3816
aS'27.9'
p3817
aS'5.1167'
p3818
ag671
aS'245'
p3819
aS'19.2'
p3820
aS'396.9'
p3821
aS'3.33'
p3822
aa(lp3823
S'0.07886'
p3824
aS'80'
p3825
aS'4.95'
p3826
ag513
aS'0.411'
p3827
aS'7.148'
p3828
aS'27.7'
p3829
aS'5.1167'
p3830
ag671
aS'245'
p3831
aS'19.2'
p3832
aS'396.9'
p3833
aS'3.56'
p3834
aa(lp3835
S'0.03615'
p3836
aS'80'
p3837
aS'4.95'
p3838
ag513
aS'0.411'
p3839
aS'6.63'
p3840
aS'23.4'
p3841
aS'5.1167'
p3842
ag671
aS'245'
p3843
aS'19.2'
p3844
aS'396.9'
p3845
aS'4.7'
p3846
aa(lp3847
S'0.08265'
p3848
ag513
aS'13.92'
p3849
ag513
aS'0.437'
p3850
aS'6.127'
p3851
aS'18.4'
p3852
aS'5.5027'
p3853
ag671
aS'289'
p3854
aS'16'
p3855
aS'396.9'
p3856
aS'8.58'
p3857
aa(lp3858
S'0.08199'
p3859
ag513
aS'13.92'
p3860
ag513
aS'0.437'
p3861
aS'6.009'
p3862
aS'42.3'
p3863
aS'5.5027'
p3864
ag671
aS'289'
p3865
aS'16'
p3866
aS'396.9'
p3867
aS'10.4'
p3868
aa(lp3869
S'0.12932'
p3870
ag513
aS'13.92'
p3871
ag513
aS'0.437'
p3872
aS'6.678'
p3873
aS'31.1'
p3874
aS'5.9604'
p3875
ag671
aS'289'
p3876
aS'16'
p3877
aS'396.9'
p3878
aS'6.27'
p3879
aa(lp3880
S'0.05372'
p3881
ag513
aS'13.92'
p3882
ag513
aS'0.437'
p3883
aS'6.549'
p3884
aS'51'
p3885
aS'5.9604'
p3886
ag671
aS'289'
p3887
aS'16'
p3888
aS'392.85'
p3889
aS'7.39'
p3890
aa(lp3891
S'0.14103'
p3892
ag513
aS'13.92'
p3893
ag513
aS'0.437'
p3894
aS'5.79'
p3895
aS'58'
p3896
aS'6.32'
p3897
ag671
aS'289'
p3898
aS'16'
p3899
aS'396.9'
p3900
aS'15.84'
p3901
aa(lp3902
S'0.06466'
p3903
aS'70'
p3904
aS'2.24'
p3905
ag513
aS'0.4'
p3906
aS'6.345'
p3907
aS'20.1'
p3908
aS'7.8278'
p3909
ag401
aS'358'
p3910
aS'14.8'
p3911
aS'368.24'
p3912
aS'4.97'
p3913
aa(lp3914
S'0.05561'
p3915
aS'70'
p3916
aS'2.24'
p3917
ag513
aS'0.4'
p3918
aS'7.041'
p3919
aS'10'
p3920
aS'7.8278'
p3921
ag401
aS'358'
p3922
aS'14.8'
p3923
aS'371.58'
p3924
aS'4.74'
p3925
aa(lp3926
S'0.04417'
p3927
aS'70'
p3928
aS'2.24'
p3929
ag513
aS'0.4'
p3930
aS'6.871'
p3931
aS'47.4'
p3932
aS'7.8278'
p3933
ag401
aS'358'
p3934
aS'14.8'
p3935
aS'390.86'
p3936
aS'6.07'
p3937
aa(lp3938
S'0.03537'
p3939
aS'34'
p3940
aS'6.09'
p3941
ag513
aS'0.433'
p3942
aS'6.59'
p3943
aS'40.4'
p3944
aS'5.4917'
p3945
ag416
aS'329'
p3946
aS'16.1'
p3947
aS'395.75'
p3948
aS'9.5'
p3949
aa(lp3950
S'0.09266'
p3951
aS'34'
p3952
aS'6.09'
p3953
ag513
aS'0.433'
p3954
aS'6.495'
p3955
aS'18.4'
p3956
aS'5.4917'
p3957
ag416
aS'329'
p3958
aS'16.1'
p3959
aS'383.61'
p3960
aS'8.67'
p3961
aa(lp3962
S'0.1'
p3963
aS'34'
p3964
aS'6.09'
p3965
ag513
aS'0.433'
p3966
aS'6.982'
p3967
aS'17.7'
p3968
aS'5.4917'
p3969
ag416
aS'329'
p3970
aS'16.1'
p3971
aS'390.43'
p3972
aS'4.86'
p3973
aa(lp3974
S'0.05515'
p3975
aS'33'
p3976
aS'2.18'
p3977
ag513
aS'0.472'
p3978
aS'7.236'
p3979
aS'41.1'
p3980
aS'4.022'
p3981
ag416
aS'222'
p3982
aS'18.4'
p3983
aS'393.68'
p3984
aS'6.93'
p3985
aa(lp3986
S'0.05479'
p3987
aS'33'
p3988
aS'2.18'
p3989
ag513
aS'0.472'
p3990
aS'6.616'
p3991
aS'58.1'
p3992
aS'3.37'
p3993
ag416
aS'222'
p3994
aS'18.4'
p3995
aS'393.36'
p3996
aS'8.93'
p3997
aa(lp3998
S'0.07503'
p3999
aS'33'
p4000
aS'2.18'
p4001
ag513
aS'0.472'
p4002
aS'7.42'
p4003
aS'71.9'
p4004
aS'3.0992'
p4005
ag416
aS'222'
p4006
aS'18.4'
p4007
aS'396.9'
p4008
aS'6.47'
p4009
aa(lp4010
S'0.04932'
p4011
aS'33'
p4012
aS'2.18'
p4013
ag513
aS'0.472'
p4014
aS'6.849'
p4015
aS'70.3'
p4016
aS'3.1827'
p4017
ag416
aS'222'
p4018
aS'18.4'
p4019
aS'396.9'
p4020
aS'7.53'
p4021
aa(lp4022
S'0.49298'
p4023
ag513
aS'9.9'
p4024
ag513
aS'0.544'
p4025
aS'6.635'
p4026
aS'82.5'
p4027
aS'3.3175'
p4028
ag671
aS'304'
p4029
aS'18.4'
p4030
aS'396.9'
p4031
aS'4.54'
p4032
aa(lp4033
S'0.3494'
p4034
ag513
aS'9.9'
p4035
ag513
aS'0.544'
p4036
aS'5.972'
p4037
aS'76.7'
p4038
aS'3.1025'
p4039
ag671
aS'304'
p4040
aS'18.4'
p4041
aS'396.24'
p4042
aS'9.97'
p4043
aa(lp4044
S'2.63548'
p4045
ag513
aS'9.9'
p4046
ag513
aS'0.544'
p4047
aS'4.973'
p4048
aS'37.8'
p4049
aS'2.5194'
p4050
ag671
aS'304'
p4051
aS'18.4'
p4052
aS'350.45'
p4053
aS'12.64'
p4054
aa(lp4055
S'0.79041'
p4056
ag513
aS'9.9'
p4057
ag513
aS'0.544'
p4058
aS'6.122'
p4059
aS'52.8'
p4060
aS'2.6403'
p4061
ag671
aS'304'
p4062
aS'18.4'
p4063
aS'396.9'
p4064
aS'5.98'
p4065
aa(lp4066
S'0.26169'
p4067
ag513
aS'9.9'
p4068
ag513
aS'0.544'
p4069
aS'6.023'
p4070
aS'90.4'
p4071
aS'2.834'
p4072
ag671
aS'304'
p4073
aS'18.4'
p4074
aS'396.3'
p4075
aS'11.72'
p4076
aa(lp4077
S'0.26938'
p4078
ag513
aS'9.9'
p4079
ag513
aS'0.544'
p4080
aS'6.266'
p4081
aS'82.8'
p4082
aS'3.2628'
p4083
ag671
aS'304'
p4084
aS'18.4'
p4085
aS'393.39'
p4086
aS'7.9'
p4087
aa(lp4088
S'0.3692'
p4089
ag513
aS'9.9'
p4090
ag513
aS'0.544'
p4091
aS'6.567'
p4092
aS'87.3'
p4093
aS'3.6023'
p4094
ag671
aS'304'
p4095
aS'18.4'
p4096
aS'395.69'
p4097
aS'9.28'
p4098
aa(lp4099
S'0.25356'
p4100
ag513
aS'9.9'
p4101
ag513
aS'0.544'
p4102
aS'5.705'
p4103
aS'77.7'
p4104
aS'3.945'
p4105
ag671
aS'304'
p4106
aS'18.4'
p4107
aS'396.42'
p4108
aS'11.5'
p4109
aa(lp4110
S'0.31827'
p4111
ag513
aS'9.9'
p4112
ag513
aS'0.544'
p4113
aS'5.914'
p4114
aS'83.2'
p4115
aS'3.9986'
p4116
ag671
aS'304'
p4117
aS'18.4'
p4118
aS'390.7'
p4119
aS'18.33'
p4120
aa(lp4121
S'0.24522'
p4122
ag513
aS'9.9'
p4123
ag513
aS'0.544'
p4124
aS'5.782'
p4125
aS'71.7'
p4126
aS'4.0317'
p4127
ag671
aS'304'
p4128
aS'18.4'
p4129
aS'396.9'
p4130
aS'15.94'
p4131
aa(lp4132
S'0.40202'
p4133
ag513
aS'9.9'
p4134
ag513
aS'0.544'
p4135
aS'6.382'
p4136
aS'67.2'
p4137
aS'3.5325'
p4138
ag671
aS'304'
p4139
aS'18.4'
p4140
aS'395.21'
p4141
aS'10.36'
p4142
aa(lp4143
S'0.47547'
p4144
ag513
aS'9.9'
p4145
ag513
aS'0.544'
p4146
aS'6.113'
p4147
aS'58.8'
p4148
aS'4.0019'
p4149
ag671
aS'304'
p4150
aS'18.4'
p4151
aS'396.23'
p4152
aS'12.73'
p4153
aa(lp4154
S'0.1676'
p4155
ag513
aS'7.38'
p4156
ag513
aS'0.493'
p4157
aS'6.426'
p4158
aS'52.3'
p4159
aS'4.5404'
p4160
ag401
aS'287'
p4161
aS'19.6'
p4162
aS'396.9'
p4163
aS'7.2'
p4164
aa(lp4165
S'0.18159'
p4166
ag513
aS'7.38'
p4167
ag513
aS'0.493'
p4168
aS'6.376'
p4169
aS'54.3'
p4170
aS'4.5404'
p4171
ag401
aS'287'
p4172
aS'19.6'
p4173
aS'396.9'
p4174
aS'6.87'
p4175
aa(lp4176
S'0.35114'
p4177
ag513
aS'7.38'
p4178
ag513
aS'0.493'
p4179
aS'6.041'
p4180
aS'49.9'
p4181
aS'4.7211'
p4182
ag401
aS'287'
p4183
aS'19.6'
p4184
aS'396.9'
p4185
aS'7.7'
p4186
aa(lp4187
S'0.28392'
p4188
ag513
aS'7.38'
p4189
ag513
aS'0.493'
p4190
aS'5.708'
p4191
aS'74.3'
p4192
aS'4.7211'
p4193
ag401
aS'287'
p4194
aS'19.6'
p4195
aS'391.13'
p4196
aS'11.74'
p4197
aa(lp4198
S'0.34109'
p4199
ag513
aS'7.38'
p4200
ag513
aS'0.493'
p4201
aS'6.415'
p4202
aS'40.1'
p4203
aS'4.7211'
p4204
ag401
aS'287'
p4205
aS'19.6'
p4206
aS'396.9'
p4207
aS'6.12'
p4208
aa(lp4209
S'0.19186'
p4210
ag513
aS'7.38'
p4211
ag513
aS'0.493'
p4212
aS'6.431'
p4213
aS'14.7'
p4214
aS'5.4159'
p4215
ag401
aS'287'
p4216
aS'19.6'
p4217
aS'393.68'
p4218
aS'5.08'
p4219
aa(lp4220
S'0.30347'
p4221
ag513
aS'7.38'
p4222
ag513
aS'0.493'
p4223
aS'6.312'
p4224
aS'28.9'
p4225
aS'5.4159'
p4226
ag401
aS'287'
p4227
aS'19.6'
p4228
aS'396.9'
p4229
aS'6.15'
p4230
aa(lp4231
S'0.24103'
p4232
ag513
aS'7.38'
p4233
ag513
aS'0.493'
p4234
aS'6.083'
p4235
aS'43.7'
p4236
aS'5.4159'
p4237
ag401
aS'287'
p4238
aS'19.6'
p4239
aS'396.9'
p4240
aS'12.79'
p4241
aa(lp4242
S'0.06617'
p4243
ag513
aS'3.24'
p4244
ag513
aS'0.46'
p4245
aS'5.868'
p4246
aS'25.8'
p4247
aS'5.2146'
p4248
ag671
aS'430'
p4249
aS'16.9'
p4250
aS'382.44'
p4251
aS'9.97'
p4252
aa(lp4253
S'0.06724'
p4254
ag513
aS'3.24'
p4255
ag513
aS'0.46'
p4256
aS'6.333'
p4257
aS'17.2'
p4258
aS'5.2146'
p4259
ag671
aS'430'
p4260
aS'16.9'
p4261
aS'375.21'
p4262
aS'7.34'
p4263
aa(lp4264
S'0.04544'
p4265
ag513
aS'3.24'
p4266
ag513
aS'0.46'
p4267
aS'6.144'
p4268
aS'32.2'
p4269
aS'5.8736'
p4270
ag671
aS'430'
p4271
aS'16.9'
p4272
aS'368.57'
p4273
aS'9.09'
p4274
aa(lp4275
S'0.05023'
p4276
aS'35'
p4277
aS'6.06'
p4278
ag513
aS'0.4379'
p4279
aS'5.706'
p4280
aS'28.4'
p4281
aS'6.6407'
p4282
ag518
aS'304'
p4283
aS'16.9'
p4284
aS'394.02'
p4285
aS'12.43'
p4286
aa(lp4287
S'0.03466'
p4288
aS'35'
p4289
aS'6.06'
p4290
ag513
aS'0.4379'
p4291
aS'6.031'
p4292
aS'23.3'
p4293
aS'6.6407'
p4294
ag518
aS'304'
p4295
aS'16.9'
p4296
aS'362.25'
p4297
aS'7.83'
p4298
aa(lp4299
S'0.05083'
p4300
ag513
aS'5.19'
p4301
ag513
aS'0.515'
p4302
aS'6.316'
p4303
aS'38.1'
p4304
aS'6.4584'
p4305
ag401
aS'224'
p4306
aS'20.2'
p4307
aS'389.71'
p4308
aS'5.68'
p4309
aa(lp4310
S'0.03738'
p4311
ag513
aS'5.19'
p4312
ag513
aS'0.515'
p4313
aS'6.31'
p4314
aS'38.5'
p4315
aS'6.4584'
p4316
ag401
aS'224'
p4317
aS'20.2'
p4318
aS'389.4'
p4319
aS'6.75'
p4320
aa(lp4321
S'0.03961'
p4322
ag513
aS'5.19'
p4323
ag513
aS'0.515'
p4324
aS'6.037'
p4325
aS'34.5'
p4326
aS'5.9853'
p4327
ag401
aS'224'
p4328
aS'20.2'
p4329
aS'396.9'
p4330
aS'8.01'
p4331
aa(lp4332
S'0.03427'
p4333
ag513
aS'5.19'
p4334
ag513
aS'0.515'
p4335
aS'5.869'
p4336
aS'46.3'
p4337
aS'5.2311'
p4338
ag401
aS'224'
p4339
aS'20.2'
p4340
aS'396.9'
p4341
aS'9.8'
p4342
aa(lp4343
S'0.03041'
p4344
ag513
aS'5.19'
p4345
ag513
aS'0.515'
p4346
aS'5.895'
p4347
aS'59.6'
p4348
aS'5.615'
p4349
ag401
aS'224'
p4350
aS'20.2'
p4351
aS'394.81'
p4352
aS'10.56'
p4353
aa(lp4354
S'0.03306'
p4355
ag513
aS'5.19'
p4356
ag513
aS'0.515'
p4357
aS'6.059'
p4358
aS'37.3'
p4359
aS'4.8122'
p4360
ag401
aS'224'
p4361
aS'20.2'
p4362
aS'396.14'
p4363
aS'8.51'
p4364
aa(lp4365
S'0.05497'
p4366
ag513
aS'5.19'
p4367
ag513
aS'0.515'
p4368
aS'5.985'
p4369
aS'45.4'
p4370
aS'4.8122'
p4371
ag401
aS'224'
p4372
aS'20.2'
p4373
aS'396.9'
p4374
aS'9.74'
p4375
aa(lp4376
S'0.06151'
p4377
ag513
aS'5.19'
p4378
ag513
aS'0.515'
p4379
aS'5.968'
p4380
aS'58.5'
p4381
aS'4.8122'
p4382
ag401
aS'224'
p4383
aS'20.2'
p4384
aS'396.9'
p4385
aS'9.29'
p4386
aa(lp4387
S'0.01301'
p4388
aS'35'
p4389
aS'1.52'
p4390
ag513
aS'0.442'
p4391
aS'7.241'
p4392
aS'49.3'
p4393
aS'7.0379'
p4394
ag518
aS'284'
p4395
aS'15.5'
p4396
aS'394.74'
p4397
aS'5.49'
p4398
aa(lp4399
S'0.02498'
p4400
ag513
aS'1.89'
p4401
ag513
aS'0.518'
p4402
aS'6.54'
p4403
aS'59.7'
p4404
aS'6.2669'
p4405
ag518
aS'422'
p4406
aS'15.9'
p4407
aS'389.96'
p4408
aS'8.65'
p4409
aa(lp4410
S'0.02543'
p4411
aS'55'
p4412
aS'3.78'
p4413
ag513
aS'0.484'
p4414
aS'6.696'
p4415
aS'56.4'
p4416
aS'5.7321'
p4417
ag401
aS'370'
p4418
aS'17.6'
p4419
aS'396.9'
p4420
aS'7.18'
p4421
aa(lp4422
S'0.03049'
p4423
aS'55'
p4424
aS'3.78'
p4425
ag513
aS'0.484'
p4426
aS'6.874'
p4427
aS'28.1'
p4428
aS'6.4654'
p4429
ag401
aS'370'
p4430
aS'17.6'
p4431
aS'387.97'
p4432
aS'4.61'
p4433
aa(lp4434
S'0.03113'
p4435
ag513
aS'4.39'
p4436
ag513
aS'0.442'
p4437
aS'6.014'
p4438
aS'48.5'
p4439
aS'8.0136'
p4440
ag553
aS'352'
p4441
aS'18.8'
p4442
aS'385.64'
p4443
aS'10.53'
p4444
aa(lp4445
S'0.06162'
p4446
ag513
aS'4.39'
p4447
ag513
aS'0.442'
p4448
aS'5.898'
p4449
aS'52.3'
p4450
aS'8.0136'
p4451
ag553
aS'352'
p4452
aS'18.8'
p4453
aS'364.61'
p4454
aS'12.67'
p4455
aa(lp4456
S'0.0187'
p4457
aS'85'
p4458
aS'4.15'
p4459
ag513
aS'0.429'
p4460
aS'6.516'
p4461
aS'27.7'
p4462
aS'8.5353'
p4463
ag671
aS'351'
p4464
aS'17.9'
p4465
aS'392.43'
p4466
aS'6.36'
p4467
aa(lp4468
S'0.01501'
p4469
aS'80'
p4470
aS'2.01'
p4471
ag513
aS'0.435'
p4472
aS'6.635'
p4473
aS'29.7'
p4474
aS'8.344'
p4475
ag671
aS'280'
p4476
aS'17'
p4477
aS'390.94'
p4478
aS'5.99'
p4479
aa(lp4480
S'0.02899'
p4481
aS'40'
p4482
aS'1.25'
p4483
ag513
aS'0.429'
p4484
aS'6.939'
p4485
aS'34.5'
p4486
aS'8.7921'
p4487
ag518
aS'335'
p4488
aS'19.7'
p4489
aS'389.85'
p4490
aS'5.89'
p4491
aa(lp4492
S'0.06211'
p4493
aS'40'
p4494
aS'1.25'
p4495
ag513
aS'0.429'
p4496
aS'6.49'
p4497
aS'44.4'
p4498
aS'8.7921'
p4499
ag518
aS'335'
p4500
aS'19.7'
p4501
aS'396.9'
p4502
aS'5.98'
p4503
aa(lp4504
S'0.0795'
p4505
aS'60'
p4506
aS'1.69'
p4507
ag513
aS'0.411'
p4508
aS'6.579'
p4509
aS'35.9'
p4510
aS'10.7103'
p4511
ag671
aS'411'
p4512
aS'18.3'
p4513
aS'370.78'
p4514
aS'5.49'
p4515
aa(lp4516
S'0.07244'
p4517
aS'60'
p4518
aS'1.69'
p4519
ag513
aS'0.411'
p4520
aS'5.884'
p4521
aS'18.5'
p4522
aS'10.7103'
p4523
ag671
aS'411'
p4524
aS'18.3'
p4525
aS'392.33'
p4526
aS'7.79'
p4527
aa(lp4528
S'0.01709'
p4529
aS'90'
p4530
aS'2.02'
p4531
ag513
aS'0.41'
p4532
aS'6.728'
p4533
aS'36.1'
p4534
aS'12.1265'
p4535
ag401
aS'187'
p4536
aS'17'
p4537
aS'384.46'
p4538
aS'4.5'
p4539
aa(lp4540
S'0.04301'
p4541
aS'80'
p4542
aS'1.91'
p4543
ag513
aS'0.413'
p4544
aS'5.663'
p4545
aS'21.9'
p4546
aS'10.5857'
p4547
ag671
aS'334'
p4548
aS'22'
p4549
aS'382.8'
p4550
aS'8.05'
p4551
aa(lp4552
S'0.10659'
p4553
aS'80'
p4554
aS'1.91'
p4555
ag513
aS'0.413'
p4556
aS'5.936'
p4557
aS'19.5'
p4558
aS'10.5857'
p4559
ag671
aS'334'
p4560
aS'22'
p4561
aS'376.04'
p4562
aS'5.57'
p4563
aa(lp4564
S'8.98296'
p4565
ag513
aS'18.1'
p4566
ag518
aS'0.77'
p4567
aS'6.212'
p4568
aS'97.4'
p4569
aS'2.1222'
p4570
aS'24'
p4571
aS'666'
p4572
aS'20.2'
p4573
aS'377.73'
p4574
aS'17.6'
p4575
aa(lp4576
S'3.8497'
p4577
ag513
aS'18.1'
p4578
ag518
aS'0.77'
p4579
aS'6.395'
p4580
aS'91'
p4581
aS'2.5052'
p4582
aS'24'
p4583
aS'666'
p4584
aS'20.2'
p4585
aS'391.34'
p4586
aS'13.27'
p4587
aa(lp4588
S'5.20177'
p4589
ag513
aS'18.1'
p4590
ag518
aS'0.77'
p4591
aS'6.127'
p4592
aS'83.4'
p4593
aS'2.7227'
p4594
aS'24'
p4595
aS'666'
p4596
aS'20.2'
p4597
aS'395.43'
p4598
aS'11.48'
p4599
aa(lp4600
S'4.26131'
p4601
ag513
aS'18.1'
p4602
ag513
aS'0.77'
p4603
aS'6.112'
p4604
aS'81.3'
p4605
aS'2.5091'
p4606
aS'24'
p4607
aS'666'
p4608
aS'20.2'
p4609
aS'390.74'
p4610
aS'12.67'
p4611
aa(lp4612
S'4.54192'
p4613
ag513
aS'18.1'
p4614
ag513
aS'0.77'
p4615
aS'6.398'
p4616
aS'88'
p4617
aS'2.5182'
p4618
aS'24'
p4619
aS'666'
p4620
aS'20.2'
p4621
aS'374.56'
p4622
aS'7.79'
p4623
aa(lp4624
S'3.83684'
p4625
ag513
aS'18.1'
p4626
ag513
aS'0.77'
p4627
aS'6.251'
p4628
aS'91.1'
p4629
aS'2.2955'
p4630
aS'24'
p4631
aS'666'
p4632
aS'20.2'
p4633
aS'350.65'
p4634
aS'14.19'
p4635
aa(lp4636
S'3.67822'
p4637
ag513
aS'18.1'
p4638
ag513
aS'0.77'
p4639
aS'5.362'
p4640
aS'96.2'
p4641
aS'2.1036'
p4642
aS'24'
p4643
aS'666'
p4644
aS'20.2'
p4645
aS'380.79'
p4646
aS'10.19'
p4647
aa(lp4648
S'4.22239'
p4649
ag513
aS'18.1'
p4650
ag518
aS'0.77'
p4651
aS'5.803'
p4652
aS'89'
p4653
aS'1.9047'
p4654
aS'24'
p4655
aS'666'
p4656
aS'20.2'
p4657
aS'353.04'
p4658
aS'14.64'
p4659
aa(lp4660
S'3.47428'
p4661
ag513
aS'18.1'
p4662
ag518
aS'0.718'
p4663
aS'8.78'
p4664
aS'82.9'
p4665
aS'1.9047'
p4666
aS'24'
p4667
aS'666'
p4668
aS'20.2'
p4669
aS'354.55'
p4670
aS'5.29'
p4671
aa(lp4672
S'4.55587'
p4673
ag513
aS'18.1'
p4674
ag513
aS'0.718'
p4675
aS'3.561'
p4676
aS'87.9'
p4677
aS'1.6132'
p4678
aS'24'
p4679
aS'666'
p4680
aS'20.2'
p4681
aS'354.7'
p4682
aS'7.12'
p4683
aa(lp4684
S'3.69695'
p4685
ag513
aS'18.1'
p4686
ag513
aS'0.718'
p4687
aS'4.963'
p4688
aS'91.4'
p4689
aS'1.7523'
p4690
aS'24'
p4691
aS'666'
p4692
aS'20.2'
p4693
aS'316.03'
p4694
aS'14'
p4695
aa(lp4696
S'13.5222'
p4697
ag513
aS'18.1'
p4698
ag513
aS'0.631'
p4699
aS'3.863'
p4700
aS'100'
p4701
aS'1.5106'
p4702
aS'24'
p4703
aS'666'
p4704
aS'20.2'
p4705
aS'131.42'
p4706
aS'13.33'
p4707
aa(lp4708
S'4.89822'
p4709
ag513
aS'18.1'
p4710
ag513
aS'0.631'
p4711
aS'4.97'
p4712
aS'100'
p4713
aS'1.3325'
p4714
aS'24'
p4715
aS'666'
p4716
aS'20.2'
p4717
aS'375.52'
p4718
aS'3.26'
p4719
aa(lp4720
S'5.66998'
p4721
ag513
aS'18.1'
p4722
ag518
aS'0.631'
p4723
aS'6.683'
p4724
aS'96.8'
p4725
aS'1.3567'
p4726
aS'24'
p4727
aS'666'
p4728
aS'20.2'
p4729
aS'375.33'
p4730
aS'3.73'
p4731
aa(lp4732
S'6.53876'
p4733
ag513
aS'18.1'
p4734
ag518
aS'0.631'
p4735
aS'7.016'
p4736
aS'97.5'
p4737
aS'1.2024'
p4738
aS'24'
p4739
aS'666'
p4740
aS'20.2'
p4741
aS'392.05'
p4742
aS'2.96'
p4743
aa(lp4744
S'9.2323'
p4745
ag513
aS'18.1'
p4746
ag513
aS'0.631'
p4747
aS'6.216'
p4748
aS'100'
p4749
aS'1.1691'
p4750
aS'24'
p4751
aS'666'
p4752
aS'20.2'
p4753
aS'366.15'
p4754
aS'9.53'
p4755
aa(lp4756
S'8.26725'
p4757
ag513
aS'18.1'
p4758
ag518
aS'0.668'
p4759
aS'5.875'
p4760
aS'89.6'
p4761
aS'1.1296'
p4762
aS'24'
p4763
aS'666'
p4764
aS'20.2'
p4765
aS'347.88'
p4766
aS'8.88'
p4767
aa(lp4768
S'11.1081'
p4769
ag513
aS'18.1'
p4770
ag513
aS'0.668'
p4771
aS'4.906'
p4772
aS'100'
p4773
aS'1.1742'
p4774
aS'24'
p4775
aS'666'
p4776
aS'20.2'
p4777
aS'396.9'
p4778
aS'34.77'
p4779
aa(lp4780
S'18.4982'
p4781
ag513
aS'18.1'
p4782
ag513
aS'0.668'
p4783
aS'4.138'
p4784
aS'100'
p4785
aS'1.137'
p4786
aS'24'
p4787
aS'666'
p4788
aS'20.2'
p4789
aS'396.9'
p4790
aS'37.97'
p4791
aa(lp4792
S'19.6091'
p4793
ag513
aS'18.1'
p4794
ag513
aS'0.671'
p4795
aS'7.313'
p4796
aS'97.9'
p4797
aS'1.3163'
p4798
aS'24'
p4799
aS'666'
p4800
aS'20.2'
p4801
aS'396.9'
p4802
aS'13.44'
p4803
aa(lp4804
S'15.288'
p4805
ag513
aS'18.1'
p4806
ag513
aS'0.671'
p4807
aS'6.649'
p4808
aS'93.3'
p4809
aS'1.3449'
p4810
aS'24'
p4811
aS'666'
p4812
aS'20.2'
p4813
aS'363.02'
p4814
aS'23.24'
p4815
aa(lp4816
S'9.82349'
p4817
ag513
aS'18.1'
p4818
ag513
aS'0.671'
p4819
aS'6.794'
p4820
aS'98.8'
p4821
aS'1.358'
p4822
aS'24'
p4823
aS'666'
p4824
aS'20.2'
p4825
aS'396.9'
p4826
aS'21.24'
p4827
aa(lp4828
S'23.6482'
p4829
ag513
aS'18.1'
p4830
ag513
aS'0.671'
p4831
aS'6.38'
p4832
aS'96.2'
p4833
aS'1.3861'
p4834
aS'24'
p4835
aS'666'
p4836
aS'20.2'
p4837
aS'396.9'
p4838
aS'23.69'
p4839
aa(lp4840
S'17.8667'
p4841
ag513
aS'18.1'
p4842
ag513
aS'0.671'
p4843
aS'6.223'
p4844
aS'100'
p4845
aS'1.3861'
p4846
aS'24'
p4847
aS'666'
p4848
aS'20.2'
p4849
aS'393.74'
p4850
aS'21.78'
p4851
aa(lp4852
S'88.9762'
p4853
ag513
aS'18.1'
p4854
ag513
aS'0.671'
p4855
aS'6.968'
p4856
aS'91.9'
p4857
aS'1.4165'
p4858
aS'24'
p4859
aS'666'
p4860
aS'20.2'
p4861
aS'396.9'
p4862
aS'17.21'
p4863
aa(lp4864
S'15.8744'
p4865
ag513
aS'18.1'
p4866
ag513
aS'0.671'
p4867
aS'6.545'
p4868
aS'99.1'
p4869
aS'1.5192'
p4870
aS'24'
p4871
aS'666'
p4872
aS'20.2'
p4873
aS'396.9'
p4874
aS'21.08'
p4875
aa(lp4876
S'9.18702'
p4877
ag513
aS'18.1'
p4878
ag513
aS'0.7'
p4879
aS'5.536'
p4880
aS'100'
p4881
aS'1.5804'
p4882
aS'24'
p4883
aS'666'
p4884
aS'20.2'
p4885
aS'396.9'
p4886
aS'23.6'
p4887
aa(lp4888
S'7.99248'
p4889
ag513
aS'18.1'
p4890
ag513
aS'0.7'
p4891
aS'5.52'
p4892
aS'100'
p4893
aS'1.5331'
p4894
aS'24'
p4895
aS'666'
p4896
aS'20.2'
p4897
aS'396.9'
p4898
aS'24.56'
p4899
aa(lp4900
S'20.0849'
p4901
ag513
aS'18.1'
p4902
ag513
aS'0.7'
p4903
aS'4.368'
p4904
aS'91.2'
p4905
aS'1.4395'
p4906
aS'24'
p4907
aS'666'
p4908
aS'20.2'
p4909
aS'285.83'
p4910
aS'30.63'
p4911
aa(lp4912
S'16.8118'
p4913
ag513
aS'18.1'
p4914
ag513
aS'0.7'
p4915
aS'5.277'
p4916
aS'98.1'
p4917
aS'1.4261'
p4918
aS'24'
p4919
aS'666'
p4920
aS'20.2'
p4921
aS'396.9'
p4922
aS'30.81'
p4923
aa(lp4924
S'24.3938'
p4925
ag513
aS'18.1'
p4926
ag513
aS'0.7'
p4927
aS'4.652'
p4928
aS'100'
p4929
aS'1.4672'
p4930
aS'24'
p4931
aS'666'
p4932
aS'20.2'
p4933
aS'396.9'
p4934
aS'28.28'
p4935
aa(lp4936
S'22.5971'
p4937
ag513
aS'18.1'
p4938
ag513
aS'0.7'
p4939
ag401
aS'89.5'
p4940
aS'1.5184'
p4941
aS'24'
p4942
aS'666'
p4943
aS'20.2'
p4944
aS'396.9'
p4945
aS'31.99'
p4946
aa(lp4947
S'14.3337'
p4948
ag513
aS'18.1'
p4949
ag513
aS'0.7'
p4950
aS'4.88'
p4951
aS'100'
p4952
aS'1.5895'
p4953
aS'24'
p4954
aS'666'
p4955
aS'20.2'
p4956
aS'372.92'
p4957
aS'30.62'
p4958
aa(lp4959
S'8.15174'
p4960
ag513
aS'18.1'
p4961
ag513
aS'0.7'
p4962
aS'5.39'
p4963
aS'98.9'
p4964
aS'1.7281'
p4965
aS'24'
p4966
aS'666'
p4967
aS'20.2'
p4968
aS'396.9'
p4969
aS'20.85'
p4970
aa(lp4971
S'6.96215'
p4972
ag513
aS'18.1'
p4973
ag513
aS'0.7'
p4974
aS'5.713'
p4975
aS'97'
p4976
aS'1.9265'
p4977
aS'24'
p4978
aS'666'
p4979
aS'20.2'
p4980
aS'394.43'
p4981
aS'17.11'
p4982
aa(lp4983
S'5.29305'
p4984
ag513
aS'18.1'
p4985
ag513
aS'0.7'
p4986
aS'6.051'
p4987
aS'82.5'
p4988
aS'2.1678'
p4989
aS'24'
p4990
aS'666'
p4991
aS'20.2'
p4992
aS'378.38'
p4993
aS'18.76'
p4994
aa(lp4995
S'11.5779'
p4996
ag513
aS'18.1'
p4997
ag513
aS'0.7'
p4998
aS'5.036'
p4999
aS'97'
p5000
aS'1.77'
p5001
aS'24'
p5002
aS'666'
p5003
aS'20.2'
p5004
aS'396.9'
p5005
aS'25.68'
p5006
aa(lp5007
S'8.64476'
p5008
ag513
aS'18.1'
p5009
ag513
aS'0.693'
p5010
aS'6.193'
p5011
aS'92.6'
p5012
aS'1.7912'
p5013
aS'24'
p5014
aS'666'
p5015
aS'20.2'
p5016
aS'396.9'
p5017
aS'15.17'
p5018
aa(lp5019
S'13.3598'
p5020
ag513
aS'18.1'
p5021
ag513
aS'0.693'
p5022
aS'5.887'
p5023
aS'94.7'
p5024
aS'1.7821'
p5025
aS'24'
p5026
aS'666'
p5027
aS'20.2'
p5028
aS'396.9'
p5029
aS'16.35'
p5030
aa(lp5031
S'8.71675'
p5032
ag513
aS'18.1'
p5033
ag513
aS'0.693'
p5034
aS'6.471'
p5035
aS'98.8'
p5036
aS'1.7257'
p5037
aS'24'
p5038
aS'666'
p5039
aS'20.2'
p5040
aS'391.98'
p5041
aS'17.12'
p5042
aa(lp5043
S'5.87205'
p5044
ag513
aS'18.1'
p5045
ag513
aS'0.693'
p5046
aS'6.405'
p5047
aS'96'
p5048
aS'1.6768'
p5049
aS'24'
p5050
aS'666'
p5051
aS'20.2'
p5052
aS'396.9'
p5053
aS'19.37'
p5054
aa(lp5055
S'7.67202'
p5056
ag513
aS'18.1'
p5057
ag513
aS'0.693'
p5058
aS'5.747'
p5059
aS'98.9'
p5060
aS'1.6334'
p5061
aS'24'
p5062
aS'666'
p5063
aS'20.2'
p5064
aS'393.1'
p5065
aS'19.92'
p5066
aa(lp5067
S'38.3518'
p5068
ag513
aS'18.1'
p5069
ag513
aS'0.693'
p5070
aS'5.453'
p5071
aS'100'
p5072
aS'1.4896'
p5073
aS'24'
p5074
aS'666'
p5075
aS'20.2'
p5076
aS'396.9'
p5077
aS'30.59'
p5078
aa(lp5079
S'9.91655'
p5080
ag513
aS'18.1'
p5081
ag513
aS'0.693'
p5082
aS'5.852'
p5083
aS'77.8'
p5084
aS'1.5004'
p5085
aS'24'
p5086
aS'666'
p5087
aS'20.2'
p5088
aS'338.16'
p5089
aS'29.97'
p5090
aa(lp5091
S'25.0461'
p5092
ag513
aS'18.1'
p5093
ag513
aS'0.693'
p5094
aS'5.987'
p5095
aS'100'
p5096
aS'1.5888'
p5097
aS'24'
p5098
aS'666'
p5099
aS'20.2'
p5100
aS'396.9'
p5101
aS'26.77'
p5102
aa(lp5103
S'14.2362'
p5104
ag513
aS'18.1'
p5105
ag513
aS'0.693'
p5106
aS'6.343'
p5107
aS'100'
p5108
aS'1.5741'
p5109
aS'24'
p5110
aS'666'
p5111
aS'20.2'
p5112
aS'396.9'
p5113
aS'20.32'
p5114
aa(lp5115
S'9.59571'
p5116
ag513
aS'18.1'
p5117
ag513
aS'0.693'
p5118
aS'6.404'
p5119
aS'100'
p5120
aS'1.639'
p5121
aS'24'
p5122
aS'666'
p5123
aS'20.2'
p5124
aS'376.11'
p5125
aS'20.31'
p5126
aa(lp5127
S'24.8017'
p5128
ag513
aS'18.1'
p5129
ag513
aS'0.693'
p5130
aS'5.349'
p5131
aS'96'
p5132
aS'1.7028'
p5133
aS'24'
p5134
aS'666'
p5135
aS'20.2'
p5136
aS'396.9'
p5137
aS'19.77'
p5138
aa(lp5139
S'41.5292'
p5140
ag513
aS'18.1'
p5141
ag513
aS'0.693'
p5142
aS'5.531'
p5143
aS'85.4'
p5144
aS'1.6074'
p5145
aS'24'
p5146
aS'666'
p5147
aS'20.2'
p5148
aS'329.46'
p5149
aS'27.38'
p5150
aa(lp5151
S'67.9208'
p5152
ag513
aS'18.1'
p5153
ag513
aS'0.693'
p5154
aS'5.683'
p5155
aS'100'
p5156
aS'1.4254'
p5157
aS'24'
p5158
aS'666'
p5159
aS'20.2'
p5160
aS'384.97'
p5161
aS'22.98'
p5162
aa(lp5163
S'20.7162'
p5164
ag513
aS'18.1'
p5165
ag513
aS'0.659'
p5166
aS'4.138'
p5167
aS'100'
p5168
aS'1.1781'
p5169
aS'24'
p5170
aS'666'
p5171
aS'20.2'
p5172
aS'370.22'
p5173
aS'23.34'
p5174
aa(lp5175
S'11.9511'
p5176
ag513
aS'18.1'
p5177
ag513
aS'0.659'
p5178
aS'5.608'
p5179
aS'100'
p5180
aS'1.2852'
p5181
aS'24'
p5182
aS'666'
p5183
aS'20.2'
p5184
aS'332.09'
p5185
aS'12.13'
p5186
aa(lp5187
S'7.40389'
p5188
ag513
aS'18.1'
p5189
ag513
aS'0.597'
p5190
aS'5.617'
p5191
aS'97.9'
p5192
aS'1.4547'
p5193
aS'24'
p5194
aS'666'
p5195
aS'20.2'
p5196
aS'314.64'
p5197
aS'26.4'
p5198
aa(lp5199
S'14.4383'
p5200
ag513
aS'18.1'
p5201
ag513
aS'0.597'
p5202
aS'6.852'
p5203
aS'100'
p5204
aS'1.4655'
p5205
aS'24'
p5206
aS'666'
p5207
aS'20.2'
p5208
aS'179.36'
p5209
aS'19.78'
p5210
aa(lp5211
S'51.1358'
p5212
ag513
aS'18.1'
p5213
ag513
aS'0.597'
p5214
aS'5.757'
p5215
aS'100'
p5216
aS'1.413'
p5217
aS'24'
p5218
aS'666'
p5219
aS'20.2'
p5220
aS'2.6'
p5221
aS'10.11'
p5222
aa(lp5223
S'14.0507'
p5224
ag513
aS'18.1'
p5225
ag513
aS'0.597'
p5226
aS'6.657'
p5227
aS'100'
p5228
aS'1.5275'
p5229
aS'24'
p5230
aS'666'
p5231
aS'20.2'
p5232
aS'35.05'
p5233
aS'21.22'
p5234
aa(lp5235
S'18.811'
p5236
ag513
aS'18.1'
p5237
ag513
aS'0.597'
p5238
aS'4.628'
p5239
aS'100'
p5240
aS'1.5539'
p5241
aS'24'
p5242
aS'666'
p5243
aS'20.2'
p5244
aS'28.79'
p5245
aS'34.37'
p5246
aa(lp5247
S'28.6558'
p5248
ag513
aS'18.1'
p5249
ag513
aS'0.597'
p5250
aS'5.155'
p5251
aS'100'
p5252
aS'1.5894'
p5253
aS'24'
p5254
aS'666'
p5255
aS'20.2'
p5256
aS'210.97'
p5257
aS'20.08'
p5258
aa(lp5259
S'45.7461'
p5260
ag513
aS'18.1'
p5261
ag513
aS'0.693'
p5262
aS'4.519'
p5263
aS'100'
p5264
aS'1.6582'
p5265
aS'24'
p5266
aS'666'
p5267
aS'20.2'
p5268
aS'88.27'
p5269
aS'36.98'
p5270
aa(lp5271
S'18.0846'
p5272
ag513
aS'18.1'
p5273
ag513
aS'0.679'
p5274
aS'6.434'
p5275
aS'100'
p5276
aS'1.8347'
p5277
aS'24'
p5278
aS'666'
p5279
aS'20.2'
p5280
aS'27.25'
p5281
aS'29.05'
p5282
aa(lp5283
S'10.8342'
p5284
ag513
aS'18.1'
p5285
ag513
aS'0.679'
p5286
aS'6.782'
p5287
aS'90.8'
p5288
aS'1.8195'
p5289
aS'24'
p5290
aS'666'
p5291
aS'20.2'
p5292
aS'21.57'
p5293
aS'25.79'
p5294
aa(lp5295
S'25.9406'
p5296
ag513
aS'18.1'
p5297
ag513
aS'0.679'
p5298
aS'5.304'
p5299
aS'89.1'
p5300
aS'1.6475'
p5301
aS'24'
p5302
aS'666'
p5303
aS'20.2'
p5304
aS'127.36'
p5305
aS'26.64'
p5306
aa(lp5307
S'73.5341'
p5308
ag513
aS'18.1'
p5309
ag513
aS'0.679'
p5310
aS'5.957'
p5311
aS'100'
p5312
aS'1.8026'
p5313
aS'24'
p5314
aS'666'
p5315
aS'20.2'
p5316
aS'16.45'
p5317
aS'20.62'
p5318
aa(lp5319
S'11.8123'
p5320
ag513
aS'18.1'
p5321
ag513
aS'0.718'
p5322
aS'6.824'
p5323
aS'76.5'
p5324
aS'1.794'
p5325
aS'24'
p5326
aS'666'
p5327
aS'20.2'
p5328
aS'48.45'
p5329
aS'22.74'
p5330
aa(lp5331
S'11.0874'
p5332
ag513
aS'18.1'
p5333
ag513
aS'0.718'
p5334
aS'6.411'
p5335
aS'100'
p5336
aS'1.8589'
p5337
aS'24'
p5338
aS'666'
p5339
aS'20.2'
p5340
aS'318.75'
p5341
aS'15.02'
p5342
aa(lp5343
S'7.02259'
p5344
ag513
aS'18.1'
p5345
ag513
aS'0.718'
p5346
aS'6.006'
p5347
aS'95.3'
p5348
aS'1.8746'
p5349
aS'24'
p5350
aS'666'
p5351
aS'20.2'
p5352
aS'319.98'
p5353
aS'15.7'
p5354
aa(lp5355
S'12.0482'
p5356
ag513
aS'18.1'
p5357
ag513
aS'0.614'
p5358
aS'5.648'
p5359
aS'87.6'
p5360
aS'1.9512'
p5361
aS'24'
p5362
aS'666'
p5363
aS'20.2'
p5364
aS'291.55'
p5365
aS'14.1'
p5366
aa(lp5367
S'7.05042'
p5368
ag513
aS'18.1'
p5369
ag513
aS'0.614'
p5370
aS'6.103'
p5371
aS'85.1'
p5372
aS'2.0218'
p5373
aS'24'
p5374
aS'666'
p5375
aS'20.2'
p5376
aS'2.52'
p5377
aS'23.29'
p5378
aa(lp5379
S'8.79212'
p5380
ag513
aS'18.1'
p5381
ag513
aS'0.584'
p5382
aS'5.565'
p5383
aS'70.6'
p5384
aS'2.0635'
p5385
aS'24'
p5386
aS'666'
p5387
aS'20.2'
p5388
aS'3.65'
p5389
aS'17.16'
p5390
aa(lp5391
S'15.8603'
p5392
ag513
aS'18.1'
p5393
ag513
aS'0.679'
p5394
aS'5.896'
p5395
aS'95.4'
p5396
aS'1.9096'
p5397
aS'24'
p5398
aS'666'
p5399
aS'20.2'
p5400
aS'7.68'
p5401
aS'24.39'
p5402
aa(lp5403
S'12.2472'
p5404
ag513
aS'18.1'
p5405
ag513
aS'0.584'
p5406
aS'5.837'
p5407
aS'59.7'
p5408
aS'1.9976'
p5409
aS'24'
p5410
aS'666'
p5411
aS'20.2'
p5412
aS'24.65'
p5413
aS'15.69'
p5414
aa(lp5415
S'37.6619'
p5416
ag513
aS'18.1'
p5417
ag513
aS'0.679'
p5418
aS'6.202'
p5419
aS'78.7'
p5420
aS'1.8629'
p5421
aS'24'
p5422
aS'666'
p5423
aS'20.2'
p5424
aS'18.82'
p5425
aS'14.52'
p5426
aa(lp5427
S'7.36711'
p5428
ag513
aS'18.1'
p5429
ag513
aS'0.679'
p5430
aS'6.193'
p5431
aS'78.1'
p5432
aS'1.9356'
p5433
aS'24'
p5434
aS'666'
p5435
aS'20.2'
p5436
aS'96.73'
p5437
aS'21.52'
p5438
aa(lp5439
S'9.33889'
p5440
ag513
aS'18.1'
p5441
ag513
aS'0.679'
p5442
aS'6.38'
p5443
aS'95.6'
p5444
aS'1.9682'
p5445
aS'24'
p5446
aS'666'
p5447
aS'20.2'
p5448
aS'60.72'
p5449
aS'24.08'
p5450
aa(lp5451
S'8.49213'
p5452
ag513
aS'18.1'
p5453
ag513
aS'0.584'
p5454
aS'6.348'
p5455
aS'86.1'
p5456
aS'2.0527'
p5457
aS'24'
p5458
aS'666'
p5459
aS'20.2'
p5460
aS'83.45'
p5461
aS'17.64'
p5462
aa(lp5463
S'10.0623'
p5464
ag513
aS'18.1'
p5465
ag513
aS'0.584'
p5466
aS'6.833'
p5467
aS'94.3'
p5468
aS'2.0882'
p5469
aS'24'
p5470
aS'666'
p5471
aS'20.2'
p5472
aS'81.33'
p5473
aS'19.69'
p5474
aa(lp5475
S'6.44405'
p5476
ag513
aS'18.1'
p5477
ag513
aS'0.584'
p5478
aS'6.425'
p5479
aS'74.8'
p5480
aS'2.2004'
p5481
aS'24'
p5482
aS'666'
p5483
aS'20.2'
p5484
aS'97.95'
p5485
aS'12.03'
p5486
aa(lp5487
S'5.58107'
p5488
ag513
aS'18.1'
p5489
ag513
aS'0.713'
p5490
aS'6.436'
p5491
aS'87.9'
p5492
aS'2.3158'
p5493
aS'24'
p5494
aS'666'
p5495
aS'20.2'
p5496
aS'100.19'
p5497
aS'16.22'
p5498
aa(lp5499
S'13.9134'
p5500
ag513
aS'18.1'
p5501
ag513
aS'0.713'
p5502
aS'6.208'
p5503
aS'95'
p5504
aS'2.2222'
p5505
aS'24'
p5506
aS'666'
p5507
aS'20.2'
p5508
aS'100.63'
p5509
aS'15.17'
p5510
aa(lp5511
S'11.1604'
p5512
ag513
aS'18.1'
p5513
ag513
aS'0.74'
p5514
aS'6.629'
p5515
aS'94.6'
p5516
aS'2.1247'
p5517
aS'24'
p5518
aS'666'
p5519
aS'20.2'
p5520
aS'109.85'
p5521
aS'23.27'
p5522
aa(lp5523
S'14.4208'
p5524
ag513
aS'18.1'
p5525
ag513
aS'0.74'
p5526
aS'6.461'
p5527
aS'93.3'
p5528
aS'2.0026'
p5529
aS'24'
p5530
aS'666'
p5531
aS'20.2'
p5532
aS'27.49'
p5533
aS'18.05'
p5534
aa(lp5535
S'15.1772'
p5536
ag513
aS'18.1'
p5537
ag513
aS'0.74'
p5538
aS'6.152'
p5539
aS'100'
p5540
aS'1.9142'
p5541
aS'24'
p5542
aS'666'
p5543
aS'20.2'
p5544
aS'9.32'
p5545
aS'26.45'
p5546
aa(lp5547
S'13.6781'
p5548
ag513
aS'18.1'
p5549
ag513
aS'0.74'
p5550
aS'5.935'
p5551
aS'87.9'
p5552
aS'1.8206'
p5553
aS'24'
p5554
aS'666'
p5555
aS'20.2'
p5556
aS'68.95'
p5557
aS'34.02'
p5558
aa(lp5559
S'9.39063'
p5560
ag513
aS'18.1'
p5561
ag513
aS'0.74'
p5562
aS'5.627'
p5563
aS'93.9'
p5564
aS'1.8172'
p5565
aS'24'
p5566
aS'666'
p5567
aS'20.2'
p5568
aS'396.9'
p5569
aS'22.88'
p5570
aa(lp5571
S'22.0511'
p5572
ag513
aS'18.1'
p5573
ag513
aS'0.74'
p5574
aS'5.818'
p5575
aS'92.4'
p5576
aS'1.8662'
p5577
aS'24'
p5578
aS'666'
p5579
aS'20.2'
p5580
aS'391.45'
p5581
aS'22.11'
p5582
aa(lp5583
S'9.72418'
p5584
ag513
aS'18.1'
p5585
ag513
aS'0.74'
p5586
aS'6.406'
p5587
aS'97.2'
p5588
aS'2.0651'
p5589
aS'24'
p5590
aS'666'
p5591
aS'20.2'
p5592
aS'385.96'
p5593
aS'19.52'
p5594
aa(lp5595
S'5.66637'
p5596
ag513
aS'18.1'
p5597
ag513
aS'0.74'
p5598
aS'6.219'
p5599
aS'100'
p5600
aS'2.0048'
p5601
aS'24'
p5602
aS'666'
p5603
aS'20.2'
p5604
aS'395.69'
p5605
aS'16.59'
p5606
aa(lp5607
S'9.96654'
p5608
ag513
aS'18.1'
p5609
ag513
aS'0.74'
p5610
aS'6.485'
p5611
aS'100'
p5612
aS'1.9784'
p5613
aS'24'
p5614
aS'666'
p5615
aS'20.2'
p5616
aS'386.73'
p5617
aS'18.85'
p5618
aa(lp5619
S'12.8023'
p5620
ag513
aS'18.1'
p5621
ag513
aS'0.74'
p5622
aS'5.854'
p5623
aS'96.6'
p5624
aS'1.8956'
p5625
aS'24'
p5626
aS'666'
p5627
aS'20.2'
p5628
aS'240.52'
p5629
aS'23.79'
p5630
aa(lp5631
S'10.6718'
p5632
ag513
aS'18.1'
p5633
ag513
aS'0.74'
p5634
aS'6.459'
p5635
aS'94.8'
p5636
aS'1.9879'
p5637
aS'24'
p5638
aS'666'
p5639
aS'20.2'
p5640
aS'43.06'
p5641
aS'23.98'
p5642
aa(lp5643
S'6.28807'
p5644
ag513
aS'18.1'
p5645
ag513
aS'0.74'
p5646
aS'6.341'
p5647
aS'96.4'
p5648
aS'2.072'
p5649
aS'24'
p5650
aS'666'
p5651
aS'20.2'
p5652
aS'318.01'
p5653
aS'17.79'
p5654
aa(lp5655
S'9.92485'
p5656
ag513
aS'18.1'
p5657
ag513
aS'0.74'
p5658
aS'6.251'
p5659
aS'96.6'
p5660
aS'2.198'
p5661
aS'24'
p5662
aS'666'
p5663
aS'20.2'
p5664
aS'388.52'
p5665
aS'16.44'
p5666
aa(lp5667
S'9.32909'
p5668
ag513
aS'18.1'
p5669
ag513
aS'0.713'
p5670
aS'6.185'
p5671
aS'98.7'
p5672
aS'2.2616'
p5673
aS'24'
p5674
aS'666'
p5675
aS'20.2'
p5676
aS'396.9'
p5677
aS'18.13'
p5678
aa(lp5679
S'7.52601'
p5680
ag513
aS'18.1'
p5681
ag513
aS'0.713'
p5682
aS'6.417'
p5683
aS'98.3'
p5684
aS'2.185'
p5685
aS'24'
p5686
aS'666'
p5687
aS'20.2'
p5688
aS'304.21'
p5689
aS'19.31'
p5690
aa(lp5691
S'6.71772'
p5692
ag513
aS'18.1'
p5693
ag513
aS'0.713'
p5694
aS'6.749'
p5695
aS'92.6'
p5696
aS'2.3236'
p5697
aS'24'
p5698
aS'666'
p5699
aS'20.2'
p5700
aS'0.32'
p5701
aS'17.44'
p5702
aa(lp5703
S'5.44114'
p5704
ag513
aS'18.1'
p5705
ag513
aS'0.713'
p5706
aS'6.655'
p5707
aS'98.2'
p5708
aS'2.3552'
p5709
aS'24'
p5710
aS'666'
p5711
aS'20.2'
p5712
aS'355.29'
p5713
aS'17.73'
p5714
aa(lp5715
S'5.09017'
p5716
ag513
aS'18.1'
p5717
ag513
aS'0.713'
p5718
aS'6.297'
p5719
aS'91.8'
p5720
aS'2.3682'
p5721
aS'24'
p5722
aS'666'
p5723
aS'20.2'
p5724
aS'385.09'
p5725
aS'17.27'
p5726
aa(lp5727
S'8.24809'
p5728
ag513
aS'18.1'
p5729
ag513
aS'0.713'
p5730
aS'7.393'
p5731
aS'99.3'
p5732
aS'2.4527'
p5733
aS'24'
p5734
aS'666'
p5735
aS'20.2'
p5736
aS'375.87'
p5737
aS'16.74'
p5738
aa(lp5739
S'9.51363'
p5740
ag513
aS'18.1'
p5741
ag513
aS'0.713'
p5742
aS'6.728'
p5743
aS'94.1'
p5744
aS'2.4961'
p5745
aS'24'
p5746
aS'666'
p5747
aS'20.2'
p5748
aS'6.68'
p5749
aS'18.71'
p5750
aa(lp5751
S'4.75237'
p5752
ag513
aS'18.1'
p5753
ag513
aS'0.713'
p5754
aS'6.525'
p5755
aS'86.5'
p5756
aS'2.4358'
p5757
aS'24'
p5758
aS'666'
p5759
aS'20.2'
p5760
aS'50.92'
p5761
aS'18.13'
p5762
aa(lp5763
S'4.66883'
p5764
ag513
aS'18.1'
p5765
ag513
aS'0.713'
p5766
aS'5.976'
p5767
aS'87.9'
p5768
aS'2.5806'
p5769
aS'24'
p5770
aS'666'
p5771
aS'20.2'
p5772
aS'10.48'
p5773
aS'19.01'
p5774
aa(lp5775
S'8.20058'
p5776
ag513
aS'18.1'
p5777
ag513
aS'0.713'
p5778
aS'5.936'
p5779
aS'80.3'
p5780
aS'2.7792'
p5781
aS'24'
p5782
aS'666'
p5783
aS'20.2'
p5784
aS'3.5'
p5785
aS'16.94'
p5786
aa(lp5787
S'7.75223'
p5788
ag513
aS'18.1'
p5789
ag513
aS'0.713'
p5790
aS'6.301'
p5791
aS'83.7'
p5792
aS'2.7831'
p5793
aS'24'
p5794
aS'666'
p5795
aS'20.2'
p5796
aS'272.21'
p5797
aS'16.23'
p5798
aa(lp5799
S'6.80117'
p5800
ag513
aS'18.1'
p5801
ag513
aS'0.713'
p5802
aS'6.081'
p5803
aS'84.4'
p5804
aS'2.7175'
p5805
aS'24'
p5806
aS'666'
p5807
aS'20.2'
p5808
aS'396.9'
p5809
aS'14.7'
p5810
aa(lp5811
S'4.81213'
p5812
ag513
aS'18.1'
p5813
ag513
aS'0.713'
p5814
aS'6.701'
p5815
aS'90'
p5816
aS'2.5975'
p5817
aS'24'
p5818
aS'666'
p5819
aS'20.2'
p5820
aS'255.23'
p5821
aS'16.42'
p5822
aa(lp5823
S'3.69311'
p5824
ag513
aS'18.1'
p5825
ag513
aS'0.713'
p5826
aS'6.376'
p5827
aS'88.4'
p5828
aS'2.5671'
p5829
aS'24'
p5830
aS'666'
p5831
aS'20.2'
p5832
aS'391.43'
p5833
aS'14.65'
p5834
aa(lp5835
S'6.65492'
p5836
ag513
aS'18.1'
p5837
ag513
aS'0.713'
p5838
aS'6.317'
p5839
aS'83'
p5840
aS'2.7344'
p5841
aS'24'
p5842
aS'666'
p5843
aS'20.2'
p5844
aS'396.9'
p5845
aS'13.99'
p5846
aa(lp5847
S'5.82115'
p5848
ag513
aS'18.1'
p5849
ag513
aS'0.713'
p5850
aS'6.513'
p5851
aS'89.9'
p5852
aS'2.8016'
p5853
aS'24'
p5854
aS'666'
p5855
aS'20.2'
p5856
aS'393.82'
p5857
aS'10.29'
p5858
aa(lp5859
S'7.83932'
p5860
ag513
aS'18.1'
p5861
ag513
aS'0.655'
p5862
aS'6.209'
p5863
aS'65.4'
p5864
aS'2.9634'
p5865
aS'24'
p5866
aS'666'
p5867
aS'20.2'
p5868
aS'396.9'
p5869
aS'13.22'
p5870
aa(lp5871
S'3.1636'
p5872
ag513
aS'18.1'
p5873
ag513
aS'0.655'
p5874
aS'5.759'
p5875
aS'48.2'
p5876
aS'3.0665'
p5877
aS'24'
p5878
aS'666'
p5879
aS'20.2'
p5880
aS'334.4'
p5881
aS'14.13'
p5882
aa(lp5883
S'3.77498'
p5884
ag513
aS'18.1'
p5885
ag513
aS'0.655'
p5886
aS'5.952'
p5887
aS'84.7'
p5888
aS'2.8715'
p5889
aS'24'
p5890
aS'666'
p5891
aS'20.2'
p5892
aS'22.01'
p5893
aS'17.15'
p5894
aa(lp5895
S'4.42228'
p5896
ag513
aS'18.1'
p5897
ag513
aS'0.584'
p5898
aS'6.003'
p5899
aS'94.5'
p5900
aS'2.5403'
p5901
aS'24'
p5902
aS'666'
p5903
aS'20.2'
p5904
aS'331.29'
p5905
aS'21.32'
p5906
aa(lp5907
S'15.5757'
p5908
ag513
aS'18.1'
p5909
ag513
aS'0.58'
p5910
aS'5.926'
p5911
aS'71'
p5912
aS'2.9084'
p5913
aS'24'
p5914
aS'666'
p5915
aS'20.2'
p5916
aS'368.74'
p5917
aS'18.13'
p5918
aa(lp5919
S'13.0751'
p5920
ag513
aS'18.1'
p5921
ag513
aS'0.58'
p5922
aS'5.713'
p5923
aS'56.7'
p5924
aS'2.8237'
p5925
aS'24'
p5926
aS'666'
p5927
aS'20.2'
p5928
aS'396.9'
p5929
aS'14.76'
p5930
aa(lp5931
S'4.34879'
p5932
ag513
aS'18.1'
p5933
ag513
aS'0.58'
p5934
aS'6.167'
p5935
aS'84'
p5936
aS'3.0334'
p5937
aS'24'
p5938
aS'666'
p5939
aS'20.2'
p5940
aS'396.9'
p5941
aS'16.29'
p5942
aa(lp5943
S'4.03841'
p5944
ag513
aS'18.1'
p5945
ag513
aS'0.532'
p5946
aS'6.229'
p5947
aS'90.7'
p5948
aS'3.0993'
p5949
aS'24'
p5950
aS'666'
p5951
aS'20.2'
p5952
aS'395.33'
p5953
aS'12.87'
p5954
aa(lp5955
S'3.56868'
p5956
ag513
aS'18.1'
p5957
ag513
aS'0.58'
p5958
aS'6.437'
p5959
aS'75'
p5960
aS'2.8965'
p5961
aS'24'
p5962
aS'666'
p5963
aS'20.2'
p5964
aS'393.37'
p5965
aS'14.36'
p5966
aa(lp5967
S'4.64689'
p5968
ag513
aS'18.1'
p5969
ag513
aS'0.614'
p5970
aS'6.98'
p5971
aS'67.6'
p5972
aS'2.5329'
p5973
aS'24'
p5974
aS'666'
p5975
aS'20.2'
p5976
aS'374.68'
p5977
aS'11.66'
p5978
aa(lp5979
S'8.05579'
p5980
ag513
aS'18.1'
p5981
ag513
aS'0.584'
p5982
aS'5.427'
p5983
aS'95.4'
p5984
aS'2.4298'
p5985
aS'24'
p5986
aS'666'
p5987
aS'20.2'
p5988
aS'352.58'
p5989
aS'18.14'
p5990
aa(lp5991
S'6.39312'
p5992
ag513
aS'18.1'
p5993
ag513
aS'0.584'
p5994
aS'6.162'
p5995
aS'97.4'
p5996
aS'2.206'
p5997
aS'24'
p5998
aS'666'
p5999
aS'20.2'
p6000
aS'302.76'
p6001
aS'24.1'
p6002
aa(lp6003
S'4.87141'
p6004
ag513
aS'18.1'
p6005
ag513
aS'0.614'
p6006
aS'6.484'
p6007
aS'93.6'
p6008
aS'2.3053'
p6009
aS'24'
p6010
aS'666'
p6011
aS'20.2'
p6012
aS'396.21'
p6013
aS'18.68'
p6014
aa(lp6015
S'15.0234'
p6016
ag513
aS'18.1'
p6017
ag513
aS'0.614'
p6018
aS'5.304'
p6019
aS'97.3'
p6020
aS'2.1007'
p6021
aS'24'
p6022
aS'666'
p6023
aS'20.2'
p6024
aS'349.48'
p6025
aS'24.91'
p6026
aa(lp6027
S'10.233'
p6028
ag513
aS'18.1'
p6029
ag513
aS'0.614'
p6030
aS'6.185'
p6031
aS'96.7'
p6032
aS'2.1705'
p6033
aS'24'
p6034
aS'666'
p6035
aS'20.2'
p6036
aS'379.7'
p6037
aS'18.03'
p6038
aa(lp6039
S'14.3337'
p6040
ag513
aS'18.1'
p6041
ag513
aS'0.614'
p6042
aS'6.229'
p6043
aS'88'
p6044
aS'1.9512'
p6045
aS'24'
p6046
aS'666'
p6047
aS'20.2'
p6048
aS'383.32'
p6049
aS'13.11'
p6050
aa(lp6051
S'5.82401'
p6052
ag513
aS'18.1'
p6053
ag513
aS'0.532'
p6054
aS'6.242'
p6055
aS'64.7'
p6056
aS'3.4242'
p6057
aS'24'
p6058
aS'666'
p6059
aS'20.2'
p6060
aS'396.9'
p6061
aS'10.74'
p6062
aa(lp6063
S'5.70818'
p6064
ag513
aS'18.1'
p6065
ag513
aS'0.532'
p6066
aS'6.75'
p6067
aS'74.9'
p6068
aS'3.3317'
p6069
aS'24'
p6070
aS'666'
p6071
aS'20.2'
p6072
aS'393.07'
p6073
aS'7.74'
p6074
aa(lp6075
S'5.73116'
p6076
ag513
aS'18.1'
p6077
ag513
aS'0.532'
p6078
aS'7.061'
p6079
aS'77'
p6080
aS'3.4106'
p6081
aS'24'
p6082
aS'666'
p6083
aS'20.2'
p6084
aS'395.28'
p6085
aS'7.01'
p6086
aa(lp6087
S'2.81838'
p6088
ag513
aS'18.1'
p6089
ag513
aS'0.532'
p6090
aS'5.762'
p6091
aS'40.3'
p6092
aS'4.0983'
p6093
aS'24'
p6094
aS'666'
p6095
aS'20.2'
p6096
aS'392.92'
p6097
aS'10.42'
p6098
aa(lp6099
S'2.37857'
p6100
ag513
aS'18.1'
p6101
ag513
aS'0.583'
p6102
aS'5.871'
p6103
aS'41.9'
p6104
aS'3.724'
p6105
aS'24'
p6106
aS'666'
p6107
aS'20.2'
p6108
aS'370.73'
p6109
aS'13.34'
p6110
aa(lp6111
S'3.67367'
p6112
ag513
aS'18.1'
p6113
ag513
aS'0.583'
p6114
aS'6.312'
p6115
aS'51.9'
p6116
aS'3.9917'
p6117
aS'24'
p6118
aS'666'
p6119
aS'20.2'
p6120
aS'388.62'
p6121
aS'10.58'
p6122
aa(lp6123
S'5.69175'
p6124
ag513
aS'18.1'
p6125
ag513
aS'0.583'
p6126
aS'6.114'
p6127
aS'79.8'
p6128
aS'3.5459'
p6129
aS'24'
p6130
aS'666'
p6131
aS'20.2'
p6132
aS'392.68'
p6133
aS'14.98'
p6134
aa(lp6135
S'4.83567'
p6136
ag513
aS'18.1'
p6137
ag513
aS'0.583'
p6138
aS'5.905'
p6139
aS'53.2'
p6140
aS'3.1523'
p6141
aS'24'
p6142
aS'666'
p6143
aS'20.2'
p6144
aS'388.22'
p6145
aS'11.45'
p6146
aa(lp6147
S'0.15086'
p6148
ag513
aS'27.74'
p6149
ag513
aS'0.609'
p6150
aS'5.454'
p6151
aS'92.7'
p6152
aS'1.8209'
p6153
ag671
aS'711'
p6154
aS'20.1'
p6155
aS'395.09'
p6156
aS'18.06'
p6157
aa(lp6158
S'0.18337'
p6159
ag513
aS'27.74'
p6160
ag513
aS'0.609'
p6161
aS'5.414'
p6162
aS'98.3'
p6163
aS'1.7554'
p6164
ag671
aS'711'
p6165
aS'20.1'
p6166
aS'344.05'
p6167
aS'23.97'
p6168
aa(lp6169
S'0.20746'
p6170
ag513
aS'27.74'
p6171
ag513
aS'0.609'
p6172
aS'5.093'
p6173
aS'98'
p6174
aS'1.8226'
p6175
ag671
aS'711'
p6176
aS'20.1'
p6177
aS'318.43'
p6178
aS'29.68'
p6179
aa(lp6180
S'0.10574'
p6181
ag513
aS'27.74'
p6182
ag513
aS'0.609'
p6183
aS'5.983'
p6184
aS'98.8'
p6185
aS'1.8681'
p6186
ag671
aS'711'
p6187
aS'20.1'
p6188
aS'390.11'
p6189
aS'18.07'
p6190
aa(lp6191
S'0.11132'
p6192
ag513
aS'27.74'
p6193
ag513
aS'0.609'
p6194
aS'5.983'
p6195
aS'83.5'
p6196
aS'2.1099'
p6197
ag671
aS'711'
p6198
aS'20.1'
p6199
aS'396.9'
p6200
aS'13.35'
p6201
aa(lp6202
S'0.17331'
p6203
ag513
aS'9.69'
p6204
ag513
aS'0.585'
p6205
aS'5.707'
p6206
aS'54'
p6207
aS'2.3817'
p6208
ag1363
aS'391'
p6209
aS'19.2'
p6210
aS'396.9'
p6211
aS'12.01'
p6212
aa(lp6213
S'0.27957'
p6214
ag513
aS'9.69'
p6215
ag513
aS'0.585'
p6216
aS'5.926'
p6217
aS'42.6'
p6218
aS'2.3817'
p6219
ag1363
aS'391'
p6220
aS'19.2'
p6221
aS'396.9'
p6222
aS'13.59'
p6223
aa(lp6224
S'0.17899'
p6225
ag513
aS'9.69'
p6226
ag513
aS'0.585'
p6227
aS'5.67'
p6228
aS'28.8'
p6229
aS'2.7986'
p6230
ag1363
aS'391'
p6231
aS'19.2'
p6232
aS'393.29'
p6233
aS'17.6'
p6234
aa(lp6235
S'0.2896'
p6236
ag513
aS'9.69'
p6237
ag513
aS'0.585'
p6238
aS'5.39'
p6239
aS'72.9'
p6240
aS'2.7986'
p6241
ag1363
aS'391'
p6242
aS'19.2'
p6243
aS'396.9'
p6244
aS'21.14'
p6245
aa(lp6246
S'0.26838'
p6247
ag513
aS'9.69'
p6248
ag513
aS'0.585'
p6249
aS'5.794'
p6250
aS'70.6'
p6251
aS'2.8927'
p6252
ag1363
aS'391'
p6253
aS'19.2'
p6254
aS'396.9'
p6255
aS'14.1'
p6256
aa(lp6257
S'0.23912'
p6258
ag513
aS'9.69'
p6259
ag513
aS'0.585'
p6260
aS'6.019'
p6261
aS'65.3'
p6262
aS'2.4091'
p6263
ag1363
aS'391'
p6264
aS'19.2'
p6265
aS'396.9'
p6266
aS'12.92'
p6267
aa(lp6268
S'0.17783'
p6269
ag513
aS'9.69'
p6270
ag513
aS'0.585'
p6271
aS'5.569'
p6272
aS'73.5'
p6273
aS'2.3999'
p6274
ag1363
aS'391'
p6275
aS'19.2'
p6276
aS'395.77'
p6277
aS'15.1'
p6278
aa(lp6279
S'0.22438'
p6280
ag513
aS'9.69'
p6281
ag513
aS'0.585'
p6282
aS'6.027'
p6283
aS'79.7'
p6284
aS'2.4982'
p6285
ag1363
aS'391'
p6286
aS'19.2'
p6287
aS'396.9'
p6288
aS'14.33'
p6289
aa(lp6290
S'0.06263'
p6291
ag513
aS'11.93'
p6292
ag513
aS'0.573'
p6293
aS'6.593'
p6294
aS'69.1'
p6295
aS'2.4786'
p6296
ag518
aS'273'
p6297
aS'21'
p6298
aS'391.99'
p6299
aS'9.67'
p6300
aa(lp6301
S'0.04527'
p6302
ag513
aS'11.93'
p6303
ag513
aS'0.573'
p6304
aS'6.12'
p6305
aS'76.7'
p6306
aS'2.2875'
p6307
ag518
aS'273'
p6308
aS'21'
p6309
aS'396.9'
p6310
aS'9.08'
p6311
aa(lp6312
S'0.06076'
p6313
ag513
aS'11.93'
p6314
ag513
aS'0.573'
p6315
aS'6.976'
p6316
aS'91'
p6317
aS'2.1675'
p6318
ag518
aS'273'
p6319
aS'21'
p6320
aS'396.9'
p6321
aS'5.64'
p6322
aa(lp6323
S'0.10959'
p6324
ag513
aS'11.93'
p6325
ag513
aS'0.573'
p6326
aS'6.794'
p6327
aS'89.3'
p6328
aS'2.3889'
p6329
ag518
aS'273'
p6330
aS'21'
p6331
aS'393.45'
p6332
aS'6.48'
p6333
aa(lp6334
S'0.04741'
p6335
ag513
aS'11.93'
p6336
ag513
aS'0.573'
p6337
aS'6.03'
p6338
aS'80.8'
p6339
aS'2.505'
p6340
ag518
aS'273'
p6341
aS'21'
p6342
aS'396.9'
p6343
aS'7.88'
p6344
aas.